

Microchip MPLAB XC8 Assembler V2.46 build 20240104201356 
                                                                                               Sat Sep 14 17:53:20 2024

Microchip MPLAB XC8 C Compiler v2.46 (Free license) build 20240104201356 Og1 
     1                           	processor	16F877A
     2                           	pagewidth 120
     3                           	opt	flic
     4                           	psect	idataBANK1,global,class=CODE,delta=2,noexec
     5                           	psect	cinit,global,class=CODE,merge=1,delta=2
     6                           	psect	bssBANK1,global,class=BANK1,space=1,delta=1,noexec
     7                           	psect	dataBANK1,global,class=BANK1,space=1,delta=1,noexec
     8                           	psect	inittext,global,class=CODE,delta=2
     9                           	psect	cstackBANK1,global,class=BANK1,space=1,delta=1,noexec
    10                           	psect	cstackCOMMON,global,class=COMMON,space=1,delta=1,noexec
    11                           	psect	cstackBANK0,global,class=BANK0,space=1,delta=1,noexec
    12                           	psect	maintext,global,class=CODE,split=1,delta=2
    13                           	psect	text1,local,class=CODE,merge=1,delta=2
    14                           	psect	text2,local,class=CODE,merge=1,delta=2,group=1
    15                           	psect	text3,local,class=CODE,merge=1,delta=2
    16                           	psect	text4,local,class=CODE,merge=1,delta=2
    17                           	psect	text5,local,class=CODE,merge=1,delta=2
    18                           	psect	text6,local,class=CODE,merge=1,delta=2
    19                           	psect	text7,local,class=CODE,merge=1,delta=2,group=1
    20                           	psect	text8,local,class=CODE,merge=1,delta=2,group=1
    21                           	psect	text9,local,class=CODE,merge=1,delta=2
    22                           	psect	text10,local,class=CODE,merge=1,delta=2
    23                           	psect	text11,local,class=CODE,merge=1,delta=2,group=1
    24                           	psect	text12,local,class=CODE,merge=1,delta=2,group=1
    25                           	psect	text13,local,class=CODE,merge=1,delta=2,group=1
    26                           	psect	text14,local,class=CODE,merge=1,delta=2,group=1
    27                           	psect	text15,local,class=CODE,merge=1,delta=2,group=1
    28                           	psect	text16,local,class=CODE,merge=1,delta=2,group=1
    29                           	psect	config,global,abs,ovrld,class=CONFIG,space=4,delta=2,noexec
    30                           	dabs	1,0x7E,2
    31     0000                     
    32                           ; Generated 12/10/2023 GMT
    33                           ; 
    34                           ; Copyright © 2023, Microchip Technology Inc. and its subsidiaries ("Microchip")
    35                           ; All rights reserved.
    36                           ; 
    37                           ; This software is developed by Microchip Technology Inc. and its subsidiaries ("Microch
      +                          ip").
    38                           ; 
    39                           ; Redistribution and use in source and binary forms, with or without modification, are
    40                           ; permitted provided that the following conditions are met:
    41                           ; 
    42                           ;     1. Redistributions of source code must retain the above copyright notice, this lis
      +                          t of
    43                           ;        conditions and the following disclaimer.
    44                           ; 
    45                           ;     2. Redistributions in binary form must reproduce the above copyright notice, this 
      +                          list
    46                           ;        of conditions and the following disclaimer in the documentation and/or other
    47                           ;        materials provided with the distribution. Publication is not required when
    48                           ;        this file is used in an embedded application.
    49                           ; 
    50                           ;     3. Microchip's name may not be used to endorse or promote products derived from th
      +                          is
    51                           ;        software without specific prior written permission.
    52                           ; 
    53                           ; THIS SOFTWARE IS PROVIDED BY MICROCHIP "AS IS" AND ANY EXPRESS OR IMPLIED WARRANTIES,
    54                           ; INCLUDING, BUT NOT LIMITED TO, THE IMPLIED WARRANTIES OF MERCHANTABILITY AND FITNESS F
      +                          OR
    55                           ; PURPOSE ARE DISCLAIMED.  IN NO EVENT SHALL MICROCHIP BE LIABLE FOR ANY DIRECT, INDIREC
      +                          T,
    56                           ; INCIDENTAL, SPECIAL, EXEMPLARY, OR CONSEQUENTIAL DAMAGES (INCLUDING BUT NOT LIMITED TO
    57                           ; PROCUREMENT OF SUBSTITUTE GOODS OR SERVICES; LOSS OF USE, DATA OR PROFITS; OR BUSINESS
    58                           ; INTERRUPTION) HOWSOEVER CAUSED AND ON ANY THEORY OF LIABILITY, WHETHER IN CONTRACT, ST
      +                          RICT
    59                           ; LIABILITY, OR TORT (INCLUDING NEGLIGENCE OR OTHERWISE) ARISING IN ANY WAY OUT OF THE U
      +                          SE OF
    60                           ; THIS SOFTWARE, EVEN IF ADVISED OF THE POSSIBILITY OF SUCH DAMAGE.
    61                           ; 
    62                           ; 
    63                           ; Code-generator required, PIC16F877A Definitions
    64                           ; 
    65                           ; SFR Addresses
    66     0000                     	;# 
    67     0001                     	;# 
    68     0002                     	;# 
    69     0003                     	;# 
    70     0004                     	;# 
    71     0005                     	;# 
    72     0006                     	;# 
    73     0007                     	;# 
    74     0008                     	;# 
    75     0009                     	;# 
    76     000A                     	;# 
    77     000B                     	;# 
    78     000C                     	;# 
    79     000D                     	;# 
    80     000E                     	;# 
    81     000E                     	;# 
    82     000F                     	;# 
    83     0010                     	;# 
    84     0011                     	;# 
    85     0012                     	;# 
    86     0013                     	;# 
    87     0014                     	;# 
    88     0015                     	;# 
    89     0015                     	;# 
    90     0016                     	;# 
    91     0017                     	;# 
    92     0018                     	;# 
    93     0019                     	;# 
    94     001A                     	;# 
    95     001B                     	;# 
    96     001B                     	;# 
    97     001C                     	;# 
    98     001D                     	;# 
    99     001E                     	;# 
   100     001F                     	;# 
   101     0081                     	;# 
   102     0085                     	;# 
   103     0086                     	;# 
   104     0087                     	;# 
   105     0088                     	;# 
   106     0089                     	;# 
   107     008C                     	;# 
   108     008D                     	;# 
   109     008E                     	;# 
   110     0091                     	;# 
   111     0092                     	;# 
   112     0093                     	;# 
   113     0094                     	;# 
   114     0098                     	;# 
   115     0099                     	;# 
   116     009C                     	;# 
   117     009D                     	;# 
   118     009E                     	;# 
   119     009F                     	;# 
   120     010C                     	;# 
   121     010D                     	;# 
   122     010E                     	;# 
   123     010F                     	;# 
   124     018C                     	;# 
   125     018D                     	;# 
   126     0000                     	;# 
   127     0001                     	;# 
   128     0002                     	;# 
   129     0003                     	;# 
   130     0004                     	;# 
   131     0005                     	;# 
   132     0006                     	;# 
   133     0007                     	;# 
   134     0008                     	;# 
   135     0009                     	;# 
   136     000A                     	;# 
   137     000B                     	;# 
   138     000C                     	;# 
   139     000D                     	;# 
   140     000E                     	;# 
   141     000E                     	;# 
   142     000F                     	;# 
   143     0010                     	;# 
   144     0011                     	;# 
   145     0012                     	;# 
   146     0013                     	;# 
   147     0014                     	;# 
   148     0015                     	;# 
   149     0015                     	;# 
   150     0016                     	;# 
   151     0017                     	;# 
   152     0018                     	;# 
   153     0019                     	;# 
   154     001A                     	;# 
   155     001B                     	;# 
   156     001B                     	;# 
   157     001C                     	;# 
   158     001D                     	;# 
   159     001E                     	;# 
   160     001F                     	;# 
   161     0081                     	;# 
   162     0085                     	;# 
   163     0086                     	;# 
   164     0087                     	;# 
   165     0088                     	;# 
   166     0089                     	;# 
   167     008C                     	;# 
   168     008D                     	;# 
   169     008E                     	;# 
   170     0091                     	;# 
   171     0092                     	;# 
   172     0093                     	;# 
   173     0094                     	;# 
   174     0098                     	;# 
   175     0099                     	;# 
   176     009C                     	;# 
   177     009D                     	;# 
   178     009E                     	;# 
   179     009F                     	;# 
   180     010C                     	;# 
   181     010D                     	;# 
   182     010E                     	;# 
   183     010F                     	;# 
   184     018C                     	;# 
   185     018D                     	;# 
   186                           
   187                           	psect	idataBANK1
   188     0B1C                     __pidataBANK1:
   189                           
   190                           ;initializer for _msg_ch2
   191     0B1C  3443               	retlw	67
   192     0B1D  3468               	retlw	104
   193     0B1E  3431               	retlw	49
   194     0B1F  343A               	retlw	58
   195     0B20  3420               	retlw	32
   196     0B21  3400               	retlw	0
   197     0B22  3400               	retlw	0
   198     0B23  3400               	retlw	0
   199     0B24  3400               	retlw	0
   200     0B25  3400               	retlw	0
   201                           
   202                           ;initializer for _msg_ch0
   203     0B26  3443               	retlw	67
   204     0B27  3468               	retlw	104
   205     0B28  3430               	retlw	48
   206     0B29  343A               	retlw	58
   207     0B2A  3420               	retlw	32
   208     0B2B  3400               	retlw	0
   209     0B2C  3400               	retlw	0
   210     0B2D  3400               	retlw	0
   211     0B2E  3400               	retlw	0
   212     0B2F  3400               	retlw	0
   213     0008                     _PORTD	set	8
   214     0007                     _PORTC	set	7
   215     0012                     _T2CON	set	18
   216     0017                     _CCP1CON	set	23
   217     0015                     _CCPR1L	set	21
   218     001E                     _ADRESH	set	30
   219     001F                     _ADCON0	set	31
   220     0092                     _PR2	set	146
   221     009F                     _ADCON1	set	159
   222     0088                     _TRISD	set	136
   223     0087                     _TRISC	set	135
   224     0085                     _TRISA	set	133
   225     009E                     _ADRESL	set	158
   226                           
   227                           	psect	cinit
   228     07E4                     start_initialization:	
   229                           ; #config settings
   230                           
   231     07E4                     __initialization:
   232                           
   233                           ; Initialize objects allocated to BANK1
   234     07E4  1383               	bcf	3,7	;select IRP bank0
   235     07E5  30B4               	movlw	low (__pdataBANK1+20)
   236     07E6  00FD               	movwf	btemp+-1
   237     07E7  300B               	movlw	high __pidataBANK1
   238     07E8  00FE               	movwf	btemp
   239     07E9  301C               	movlw	low __pidataBANK1
   240     07EA  00FF               	movwf	btemp+1
   241     07EB  30A0               	movlw	low __pdataBANK1
   242     07EC  0084               	movwf	4
   243     07ED  120A  158A  22F9  120A  118A  	fcall	init_ram0
   244                           
   245                           ; Clear objects allocated to BANK1
   246     07F2  1683               	bsf	3,5	;RP0=1, select bank1
   247     07F3  1303               	bcf	3,6	;RP1=0, select bank1
   248     07F4  01B4               	clrf	__pbssBANK1& (0+127)
   249     07F5  01B5               	clrf	(__pbssBANK1+1)& (0+127)
   250     07F6  01B6               	clrf	(__pbssBANK1+2)& (0+127)
   251     07F7  01B7               	clrf	(__pbssBANK1+3)& (0+127)
   252     07F8  01B8               	clrf	(__pbssBANK1+4)& (0+127)
   253     07F9  01B9               	clrf	(__pbssBANK1+5)& (0+127)
   254     07FA  01BA               	clrf	(__pbssBANK1+6)& (0+127)
   255     07FB  01BB               	clrf	(__pbssBANK1+7)& (0+127)
   256     07FC                     end_of_initialization:	
   257                           ;End of C runtime variable initialization code
   258                           
   259     07FC                     __end_of__initialization:
   260     07FC  0183               	clrf	3
   261     07FD  120A  158A  2EC9   	ljmp	_main	;jump to C main() function
   262                           
   263                           	psect	bssBANK1
   264     00B4                     __pbssBANK1:
   265     00B4                     _result_ch2:
   266     00B4                     	ds	2
   267     00B6                     _result_ch0:
   268     00B6                     	ds	2
   269     00B8                     _adc_high:
   270     00B8                     	ds	2
   271     00BA                     _adc_low:
   272     00BA                     	ds	2
   273                           
   274                           	psect	dataBANK1
   275     00A0                     __pdataBANK1:
   276     00A0                     _msg_ch2:
   277     00A0                     	ds	10
   278     00AA                     _msg_ch0:
   279     00AA                     	ds	10
   280                           
   281                           	psect	inittext
   282     0AF5                     init_fetch0:	
   283                           ;	Called with low address in FSR and high address in W
   284                           
   285     0AF5  087E               	movf	btemp,w
   286     0AF6  008A               	movwf	10
   287     0AF7  087F               	movf	btemp+1,w
   288     0AF8  0082               	movwf	2
   289     0AF9                     init_ram0:	
   290                           ;Called with:
   291                           ;	high address of idata address in btemp 
   292                           ;	low address of idata address in btemp+1 
   293                           ;	low address of data in FSR
   294                           ;	high address + 1 of data in btemp-1
   295                           
   296     0AF9  120A  158A  22F5  120A  158A  	fcall	init_fetch0
   297     0AFE  0080               	movwf	0
   298     0AFF  0A84               	incf	4,f
   299     0B00  0804               	movf	4,w
   300     0B01  067D               	xorwf	btemp+-1,w
   301     0B02  1903               	btfsc	3,2
   302     0B03  3400               	retlw	0
   303     0B04  0AFF               	incf	btemp+1,f
   304     0B05  1903               	btfsc	3,2
   305     0B06  0AFE               	incf	btemp,f
   306     0B07  2AF9               	goto	init_ram0
   307                           
   308                           	psect	cstackBANK1
   309     00BC                     __pcstackBANK1:
   310     00BC                     ___fltol@sign1:
   311                           
   312                           ; 1 bytes @ 0x0
   313     00BC                     	ds	1
   314     00BD                     ___fltol@exp1:
   315                           
   316                           ; 1 bytes @ 0x1
   317     00BD                     	ds	1
   318     00BE                     ??_main:
   319                           
   320                           ; 1 bytes @ 0x2
   321     00BE                     	ds	2
   322     00C0                     main@i:
   323                           
   324                           ; 2 bytes @ 0x4
   325     00C0                     	ds	2
   326                           
   327                           	psect	cstackCOMMON
   328     0070                     __pcstackCOMMON:
   329     0070                     ?_init:
   330     0070                     ?_lcd_com:	
   331                           ; 1 bytes @ 0x0
   332                           
   333     0070                     ??_lcd_com:	
   334                           ; 1 bytes @ 0x0
   335                           
   336     0070                     ?_lcd_data:	
   337                           ; 1 bytes @ 0x0
   338                           
   339     0070                     ??_lcd_data:	
   340                           ; 1 bytes @ 0x0
   341                           
   342     0070                     ?_read_adc_channel:	
   343                           ; 1 bytes @ 0x0
   344                           
   345     0070                     ??_read_adc_channel:	
   346                           ; 1 bytes @ 0x0
   347                           
   348     0070                     ?_main:	
   349                           ; 1 bytes @ 0x0
   350                           
   351     0070                     ?__Umul8_16:	
   352                           ; 1 bytes @ 0x0
   353                           
   354     0070                     ?___wmul:	
   355                           ; 2 bytes @ 0x0
   356                           
   357     0070                     ?___xxtofl:	
   358                           ; 2 bytes @ 0x0
   359                           
   360     0070                     __Umul8_16@multiplicand:	
   361                           ; 4 bytes @ 0x0
   362                           
   363     0070                     ___wmul@multiplier:	
   364                           ; 1 bytes @ 0x0
   365                           
   366     0070                     ___xxtofl@val:	
   367                           ; 2 bytes @ 0x0
   368                           
   369                           
   370                           ; 4 bytes @ 0x0
   371     0070                     	ds	2
   372     0072                     ??__Umul8_16:
   373     0072                     read_adc_channel@channel:	
   374                           ; 1 bytes @ 0x2
   375                           
   376     0072                     lcd_com@i:	
   377                           ; 1 bytes @ 0x2
   378                           
   379     0072                     lcd_data@i:	
   380                           ; 1 bytes @ 0x2
   381                           
   382     0072                     ___wmul@multiplicand:	
   383                           ; 1 bytes @ 0x2
   384                           
   385                           
   386                           ; 2 bytes @ 0x2
   387     0072                     	ds	1
   388     0073                     ??_init:
   389                           
   390                           ; 1 bytes @ 0x3
   391     0073                     	ds	1
   392     0074                     ??___wmul:
   393     0074                     ??___xxtofl:	
   394                           ; 1 bytes @ 0x4
   395                           
   396     0074                     ___wmul@product:	
   397                           ; 1 bytes @ 0x4
   398                           
   399     0074                     __Umul8_16@product:	
   400                           ; 2 bytes @ 0x4
   401                           
   402                           
   403                           ; 2 bytes @ 0x4
   404     0074                     	ds	2
   405     0076                     ?___lwdiv:
   406     0076                     ___lwdiv@divisor:	
   407                           ; 2 bytes @ 0x6
   408                           
   409     0076                     __Umul8_16@word_mpld:	
   410                           ; 2 bytes @ 0x6
   411                           
   412                           
   413                           ; 2 bytes @ 0x6
   414     0076                     	ds	2
   415     0078                     __Umul8_16@multiplier:
   416     0078                     ___xxtofl@sign:	
   417                           ; 1 bytes @ 0x8
   418                           
   419     0078                     ___lwdiv@dividend:	
   420                           ; 1 bytes @ 0x8
   421                           
   422                           
   423                           ; 2 bytes @ 0x8
   424     0078                     	ds	1
   425     0079                     ___xxtofl@exp:
   426                           
   427                           ; 1 bytes @ 0x9
   428     0079                     	ds	1
   429     007A                     ??___lwdiv:
   430     007A                     ___lwdiv@quotient:	
   431                           ; 1 bytes @ 0xA
   432                           
   433     007A                     ___xxtofl@arg:	
   434                           ; 2 bytes @ 0xA
   435                           
   436                           
   437                           ; 4 bytes @ 0xA
   438     007A                     	ds	2
   439     007C                     ___lwdiv@counter:
   440                           
   441                           ; 1 bytes @ 0xC
   442     007C                     	ds	1
   443     007D                     ??___lwmod:
   444     007D                     ___lwmod@counter:	
   445                           ; 1 bytes @ 0xD
   446                           
   447                           
   448                           ; 1 bytes @ 0xD
   449     007D                     	ds	1
   450     007E                     ??_lcd_output_raw:
   451     007E                     ??_lcd_output_cal:	
   452                           ; 1 bytes @ 0xE
   453                           
   454                           
   455                           	psect	cstackBANK0
   456     0020                     __pcstackBANK0:	
   457                           ; 1 bytes @ 0xE
   458                           
   459     0020                     ?_update_pwm_duty:
   460     0020                     ?___lwmod:	
   461                           ; 1 bytes @ 0x0
   462                           
   463     0020                     ?___flmul:	
   464                           ; 2 bytes @ 0x0
   465                           
   466     0020                     update_pwm_duty@adc_value:	
   467                           ; 4 bytes @ 0x0
   468                           
   469     0020                     ___lwmod@divisor:	
   470                           ; 2 bytes @ 0x0
   471                           
   472     0020                     ___flmul@b:	
   473                           ; 2 bytes @ 0x0
   474                           
   475                           
   476                           ; 4 bytes @ 0x0
   477     0020                     	ds	2
   478     0022                     ??_update_pwm_duty:
   479     0022                     ___lwmod@dividend:	
   480                           ; 1 bytes @ 0x2
   481                           
   482                           
   483                           ; 2 bytes @ 0x2
   484     0022                     	ds	2
   485     0024                     ?_lcd_output_raw:
   486     0024                     ?_lcd_output_cal:	
   487                           ; 1 bytes @ 0x4
   488                           
   489     0024                     lcd_output_raw@i:	
   490                           ; 1 bytes @ 0x4
   491                           
   492     0024                     lcd_output_cal@i:	
   493                           ; 2 bytes @ 0x4
   494                           
   495     0024                     update_pwm_duty@duty_cycle:	
   496                           ; 2 bytes @ 0x4
   497                           
   498     0024                     ___flmul@a:	
   499                           ; 2 bytes @ 0x4
   500                           
   501                           
   502                           ; 4 bytes @ 0x4
   503     0024                     	ds	2
   504     0026                     lcd_output_cal@k:
   505     0026                     lcd_output_raw@k:	
   506                           ; 3 bytes @ 0x6
   507                           
   508                           
   509                           ; 5 bytes @ 0x6
   510     0026                     	ds	2
   511     0028                     ??___flmul:
   512                           
   513                           ; 1 bytes @ 0x8
   514     0028                     	ds	5
   515     002D                     ___flmul@sign:
   516                           
   517                           ; 1 bytes @ 0xD
   518     002D                     	ds	1
   519     002E                     ___flmul@grs:
   520                           
   521                           ; 4 bytes @ 0xE
   522     002E                     	ds	4
   523     0032                     ___flmul@aexp:
   524                           
   525                           ; 1 bytes @ 0x12
   526     0032                     	ds	1
   527     0033                     ___flmul@bexp:
   528                           
   529                           ; 1 bytes @ 0x13
   530     0033                     	ds	1
   531     0034                     ___flmul@prod:
   532                           
   533                           ; 4 bytes @ 0x14
   534     0034                     	ds	4
   535     0038                     ___flmul@temp:
   536                           
   537                           ; 2 bytes @ 0x18
   538     0038                     	ds	2
   539     003A                     ?___fladd:
   540     003A                     ___fladd@b:	
   541                           ; 4 bytes @ 0x1A
   542                           
   543                           
   544                           ; 4 bytes @ 0x1A
   545     003A                     	ds	4
   546     003E                     ___fladd@a:
   547                           
   548                           ; 4 bytes @ 0x1E
   549     003E                     	ds	4
   550     0042                     ??___fladd:
   551                           
   552                           ; 1 bytes @ 0x22
   553     0042                     	ds	8
   554     004A                     ___fladd@signs:
   555                           
   556                           ; 1 bytes @ 0x2A
   557     004A                     	ds	1
   558     004B                     ___fladd@aexp:
   559                           
   560                           ; 1 bytes @ 0x2B
   561     004B                     	ds	1
   562     004C                     ___fladd@bexp:
   563                           
   564                           ; 1 bytes @ 0x2C
   565     004C                     	ds	1
   566     004D                     ___fladd@grs:
   567                           
   568                           ; 1 bytes @ 0x2D
   569     004D                     	ds	1
   570     004E                     ?___fldiv:
   571     004E                     ___fldiv@a:	
   572                           ; 4 bytes @ 0x2E
   573                           
   574                           
   575                           ; 4 bytes @ 0x2E
   576     004E                     	ds	4
   577     0052                     ___fldiv@b:
   578                           
   579                           ; 4 bytes @ 0x32
   580     0052                     	ds	4
   581     0056                     ??___fldiv:
   582                           
   583                           ; 1 bytes @ 0x36
   584     0056                     	ds	5
   585     005B                     ___fldiv@rem:
   586                           
   587                           ; 4 bytes @ 0x3B
   588     005B                     	ds	4
   589     005F                     ___fldiv@sign:
   590                           
   591                           ; 1 bytes @ 0x3F
   592     005F                     	ds	1
   593     0060                     ___fldiv@new_exp:
   594                           
   595                           ; 2 bytes @ 0x40
   596     0060                     	ds	2
   597     0062                     ___fldiv@grs:
   598                           
   599                           ; 4 bytes @ 0x42
   600     0062                     	ds	4
   601     0066                     ___fldiv@bexp:
   602                           
   603                           ; 1 bytes @ 0x46
   604     0066                     	ds	1
   605     0067                     ___fldiv@aexp:
   606                           
   607                           ; 1 bytes @ 0x47
   608     0067                     	ds	1
   609     0068                     ?___fltol:
   610     0068                     ___fltol@f1:	
   611                           ; 4 bytes @ 0x48
   612                           
   613                           
   614                           ; 4 bytes @ 0x48
   615     0068                     	ds	4
   616     006C                     ??___fltol:
   617                           
   618                           ; 1 bytes @ 0x4C
   619     006C                     	ds	4
   620                           
   621                           	psect	maintext
   622     0EC9                     __pmaintext:	
   623 ;;
   624 ;;Main: autosize = 0, tempsize = 2, incstack = 0, save=0
   625 ;;
   626 ;; *************** function _main *****************
   627 ;; Defined at:
   628 ;;		line 41 in file "ADC+PWM_TASK.c"
   629 ;; Parameters:    Size  Location     Type
   630 ;;		None
   631 ;; Auto vars:     Size  Location     Type
   632 ;;  i               2    4[BANK1 ] int 
   633 ;; Return value:  Size  Location     Type
   634 ;;                  1    wreg      void 
   635 ;; Registers used:
   636 ;;		wreg, fsr0l, fsr0h, status,2, status,0, btemp+1, pclath, cstack
   637 ;; Tracked objects:
   638 ;;		On entry : B00/0
   639 ;;		On exit  : 0/0
   640 ;;		Unchanged: 0/0
   641 ;; Data sizes:     COMMON   BANK0   BANK1   BANK3   BANK2
   642 ;;      Params:         0       0       0       0       0
   643 ;;      Locals:         0       0       2       0       0
   644 ;;      Temps:          0       0       2       0       0
   645 ;;      Totals:         0       0       4       0       0
   646 ;;Total ram usage:        4 bytes
   647 ;; Hardware stack levels required when called: 2
   648 ;; This function calls:
   649 ;;		___fladd
   650 ;;		___fldiv
   651 ;;		___flmul
   652 ;;		___fltol
   653 ;;		___xxtofl
   654 ;;		_init
   655 ;;		_lcd_com
   656 ;;		_lcd_data
   657 ;;		_lcd_output_cal
   658 ;;		_lcd_output_raw
   659 ;;		_read_adc_channel
   660 ;;		_update_pwm_duty
   661 ;; This function is called by:
   662 ;;		Startup code after reset
   663 ;; This function uses a non-reentrant model
   664 ;;
   665                           
   666     0EC9                     _main:	
   667                           ;psect for function _main
   668                           
   669     0EC9                     l2131:	
   670                           ;incstack = 0
   671                           ; Regs used in _main: [wreg-fsr0h+status,2+status,0+btemp+1+pclath+cstack]
   672                           
   673                           
   674                           ;ADC+PWM_TASK.c: 42:     int i;;ADC+PWM_TASK.c: 43:     init();
   675     0EC9  120A  158A  246F  120A  158A  	fcall	_init
   676                           
   677                           ;ADC+PWM_TASK.c: 44:     lcd_com(0x80);
   678     0ECE  3080               	movlw	128
   679     0ECF  120A  158A  2330  120A  158A  	fcall	_lcd_com
   680     0ED4                     l2133:
   681                           
   682                           ;ADC+PWM_TASK.c: 45:     for (i = 0; i < 5; i++) {
   683     0ED4  1683               	bsf	3,5	;RP0=1, select bank1
   684     0ED5  1303               	bcf	3,6	;RP1=0, select bank1
   685     0ED6  01C0               	clrf	main@i^(0+128)
   686     0ED7  01C1               	clrf	(main@i+1)^(0+128)
   687     0ED8                     l2139:
   688                           
   689                           ;ADC+PWM_TASK.c: 46:         lcd_data(msg_ch0[i]);
   690     0ED8  1683               	bsf	3,5	;RP0=1, select bank1
   691     0ED9  1303               	bcf	3,6	;RP1=0, select bank1
   692     0EDA  0840               	movf	main@i^(0+128),w
   693     0EDB  3EAA               	addlw	(low (_msg_ch0| 0))& (0+255)
   694     0EDC  0084               	movwf	4
   695     0EDD  1383               	bcf	3,7	;select IRP bank1
   696     0EDE  0800               	movf	0,w
   697     0EDF  120A  158A  2308  120A  158A  	fcall	_lcd_data
   698     0EE4                     l2141:
   699                           
   700                           ;ADC+PWM_TASK.c: 47:     }
   701     0EE4  3001               	movlw	1
   702     0EE5  1683               	bsf	3,5	;RP0=1, select bank1
   703     0EE6  1303               	bcf	3,6	;RP1=0, select bank1
   704     0EE7  07C0               	addwf	main@i^(0+128),f
   705     0EE8  1803               	skipnc
   706     0EE9  0AC1               	incf	(main@i+1)^(0+128),f
   707     0EEA  3000               	movlw	0
   708     0EEB  07C1               	addwf	(main@i+1)^(0+128),f
   709     0EEC                     l2143:
   710     0EEC  0841               	movf	(main@i+1)^(0+128),w
   711     0EED  3A80               	xorlw	128
   712     0EEE  00FF               	movwf	btemp+1
   713     0EEF  3080               	movlw	128
   714     0EF0  027F               	subwf	btemp+1,w
   715     0EF1  1D03               	skipz
   716     0EF2  2EF5               	goto	u3215
   717     0EF3  3005               	movlw	5
   718     0EF4  0240               	subwf	main@i^(0+128),w
   719     0EF5                     u3215:
   720     0EF5  1C03               	skipc
   721     0EF6  2EF8               	goto	u3211
   722     0EF7  2EF9               	goto	u3210
   723     0EF8                     u3211:
   724     0EF8  2ED8               	goto	l2139
   725     0EF9                     u3210:
   726     0EF9                     l2145:
   727                           
   728                           ;ADC+PWM_TASK.c: 49:     lcd_com(0xC0);
   729     0EF9  30C0               	movlw	192
   730     0EFA  120A  158A  2330  120A  158A  	fcall	_lcd_com
   731     0EFF                     l2147:
   732                           
   733                           ;ADC+PWM_TASK.c: 50:     for (i = 0; i < 5; i++) {
   734     0EFF  1683               	bsf	3,5	;RP0=1, select bank1
   735     0F00  1303               	bcf	3,6	;RP1=0, select bank1
   736     0F01  01C0               	clrf	main@i^(0+128)
   737     0F02  01C1               	clrf	(main@i+1)^(0+128)
   738     0F03                     l2153:
   739                           
   740                           ;ADC+PWM_TASK.c: 51:         lcd_data(msg_ch2[i]);
   741     0F03  1683               	bsf	3,5	;RP0=1, select bank1
   742     0F04  1303               	bcf	3,6	;RP1=0, select bank1
   743     0F05  0840               	movf	main@i^(0+128),w
   744     0F06  3EA0               	addlw	(low (_msg_ch2| 0))& (0+255)
   745     0F07  0084               	movwf	4
   746     0F08  1383               	bcf	3,7	;select IRP bank1
   747     0F09  0800               	movf	0,w
   748     0F0A  120A  158A  2308  120A  158A  	fcall	_lcd_data
   749     0F0F                     l2155:
   750                           
   751                           ;ADC+PWM_TASK.c: 52:     }
   752     0F0F  3001               	movlw	1
   753     0F10  1683               	bsf	3,5	;RP0=1, select bank1
   754     0F11  1303               	bcf	3,6	;RP1=0, select bank1
   755     0F12  07C0               	addwf	main@i^(0+128),f
   756     0F13  1803               	skipnc
   757     0F14  0AC1               	incf	(main@i+1)^(0+128),f
   758     0F15  3000               	movlw	0
   759     0F16  07C1               	addwf	(main@i+1)^(0+128),f
   760     0F17                     l2157:
   761     0F17  0841               	movf	(main@i+1)^(0+128),w
   762     0F18  3A80               	xorlw	128
   763     0F19  00FF               	movwf	btemp+1
   764     0F1A  3080               	movlw	128
   765     0F1B  027F               	subwf	btemp+1,w
   766     0F1C  1D03               	skipz
   767     0F1D  2F20               	goto	u3225
   768     0F1E  3005               	movlw	5
   769     0F1F  0240               	subwf	main@i^(0+128),w
   770     0F20                     u3225:
   771     0F20  1C03               	skipc
   772     0F21  2F23               	goto	u3221
   773     0F22  2F24               	goto	u3220
   774     0F23                     u3221:
   775     0F23  2F03               	goto	l2153
   776     0F24                     u3220:
   777     0F24                     l2159:
   778                           
   779                           ;ADC+PWM_TASK.c: 56:         read_adc_channel(0);
   780     0F24  3000               	movlw	0
   781     0F25  120A  158A  2393  120A  158A  	fcall	_read_adc_channel
   782     0F2A                     l2161:
   783                           
   784                           ;ADC+PWM_TASK.c: 57:         result_ch0 = (adc_high << 8) | adc_low;
   785     0F2A  1683               	bsf	3,5	;RP0=1, select bank1
   786     0F2B  1303               	bcf	3,6	;RP1=0, select bank1
   787     0F2C  0838               	movf	_adc_high^(0+128),w
   788     0F2D  00BF               	movwf	(??_main^(0+128)+1)
   789     0F2E  01BE               	clrf	??_main^(0+128)
   790     0F2F  083A               	movf	_adc_low^(0+128),w
   791     0F30  043E               	iorwf	??_main^(0+128),w
   792     0F31  00B6               	movwf	_result_ch0^(0+128)
   793     0F32  083B               	movf	(_adc_low+1)^(0+128),w
   794     0F33  043F               	iorwf	(??_main+1)^(0+128),w
   795     0F34  00B7               	movwf	(_result_ch0+1)^(0+128)
   796     0F35                     l2163:
   797                           
   798                           ;ADC+PWM_TASK.c: 58:         lcd_com(0x85);
   799     0F35  3085               	movlw	133
   800     0F36  120A  158A  2330  120A  158A  	fcall	_lcd_com
   801     0F3B                     l2165:
   802                           
   803                           ;ADC+PWM_TASK.c: 59:         lcd_output_raw(result_ch0);
   804     0F3B  1683               	bsf	3,5	;RP0=1, select bank1
   805     0F3C  1303               	bcf	3,6	;RP1=0, select bank1
   806     0F3D  0837               	movf	(_result_ch0+1)^(0+128),w
   807     0F3E  1283               	bcf	3,5	;RP0=0, select bank0
   808     0F3F  1303               	bcf	3,6	;RP1=0, select bank0
   809     0F40  00A5               	movwf	lcd_output_raw@i+1
   810     0F41  1683               	bsf	3,5	;RP0=1, select bank1
   811     0F42  1303               	bcf	3,6	;RP1=0, select bank1
   812     0F43  0836               	movf	_result_ch0^(0+128),w
   813     0F44  1283               	bcf	3,5	;RP0=0, select bank0
   814     0F45  1303               	bcf	3,6	;RP1=0, select bank0
   815     0F46  00A4               	movwf	lcd_output_raw@i
   816     0F47  120A  158A  257B  120A  158A  	fcall	_lcd_output_raw
   817     0F4C                     l2167:
   818                           
   819                           ;ADC+PWM_TASK.c: 62:         read_adc_channel(2);
   820     0F4C  3002               	movlw	2
   821     0F4D  120A  158A  2393  120A  158A  	fcall	_read_adc_channel
   822                           
   823                           ;ADC+PWM_TASK.c: 63:         result_ch2 = (adc_high << 8) | adc_low;
   824     0F52  1683               	bsf	3,5	;RP0=1, select bank1
   825     0F53  1303               	bcf	3,6	;RP1=0, select bank1
   826     0F54  0838               	movf	_adc_high^(0+128),w
   827     0F55  00BF               	movwf	(??_main^(0+128)+1)
   828     0F56  01BE               	clrf	??_main^(0+128)
   829     0F57  083A               	movf	_adc_low^(0+128),w
   830     0F58  043E               	iorwf	??_main^(0+128),w
   831     0F59  00B4               	movwf	_result_ch2^(0+128)
   832     0F5A  083B               	movf	(_adc_low+1)^(0+128),w
   833     0F5B  043F               	iorwf	(??_main+1)^(0+128),w
   834     0F5C  00B5               	movwf	(_result_ch2+1)^(0+128)
   835     0F5D                     l2169:
   836                           
   837                           ;ADC+PWM_TASK.c: 65:         result_ch2 = ((float)result_ch2 * 337 + 1023 / 2) / 1023;
   838     0F5D  0834               	movf	_result_ch2^(0+128),w
   839     0F5E  00F0               	movwf	___xxtofl@val
   840     0F5F  0835               	movf	(_result_ch2+1)^(0+128),w
   841     0F60  00F1               	movwf	___xxtofl@val+1
   842     0F61  01F2               	clrf	___xxtofl@val+2
   843     0F62  01F3               	clrf	___xxtofl@val+3
   844     0F63  3000               	movlw	0
   845     0F64  120A  158A  2611  120A  158A  	fcall	___xxtofl
   846     0F69  0873               	movf	?___xxtofl+3,w
   847     0F6A  1283               	bcf	3,5	;RP0=0, select bank0
   848     0F6B  1303               	bcf	3,6	;RP1=0, select bank0
   849     0F6C  00A7               	movwf	___flmul@a+3
   850     0F6D  0872               	movf	?___xxtofl+2,w
   851     0F6E  00A6               	movwf	___flmul@a+2
   852     0F6F  0871               	movf	?___xxtofl+1,w
   853     0F70  00A5               	movwf	___flmul@a+1
   854     0F71  0870               	movf	?___xxtofl,w
   855     0F72  00A4               	movwf	___flmul@a
   856     0F73  3043               	movlw	67
   857     0F74  00A3               	movwf	___flmul@b+3
   858     0F75  30A8               	movlw	168
   859     0F76  00A2               	movwf	___flmul@b+2
   860     0F77  3080               	movlw	128
   861     0F78  00A1               	movwf	___flmul@b+1
   862     0F79  3000               	movlw	0
   863     0F7A  00A0               	movwf	___flmul@b
   864     0F7B  120A  118A  249F  120A  158A  	fcall	___flmul
   865     0F80  1283               	bcf	3,5	;RP0=0, select bank0
   866     0F81  1303               	bcf	3,6	;RP1=0, select bank0
   867     0F82  0823               	movf	?___flmul+3,w
   868     0F83  00C1               	movwf	___fladd@a+3
   869     0F84  0822               	movf	?___flmul+2,w
   870     0F85  00C0               	movwf	___fladd@a+2
   871     0F86  0821               	movf	?___flmul+1,w
   872     0F87  00BF               	movwf	___fladd@a+1
   873     0F88  0820               	movf	?___flmul,w
   874     0F89  00BE               	movwf	___fladd@a
   875     0F8A  3043               	movlw	67
   876     0F8B  00BD               	movwf	___fladd@b+3
   877     0F8C  30FF               	movlw	255
   878     0F8D  00BC               	movwf	___fladd@b+2
   879     0F8E  3080               	movlw	128
   880     0F8F  00BB               	movwf	___fladd@b+1
   881     0F90  3000               	movlw	0
   882     0F91  00BA               	movwf	___fladd@b
   883     0F92  120A  118A  2247  120A  158A  	fcall	___fladd
   884     0F97  1283               	bcf	3,5	;RP0=0, select bank0
   885     0F98  1303               	bcf	3,6	;RP1=0, select bank0
   886     0F99  083D               	movf	?___fladd+3,w
   887     0F9A  00D5               	movwf	___fldiv@b+3
   888     0F9B  083C               	movf	?___fladd+2,w
   889     0F9C  00D4               	movwf	___fldiv@b+2
   890     0F9D  083B               	movf	?___fladd+1,w
   891     0F9E  00D3               	movwf	___fldiv@b+1
   892     0F9F  083A               	movf	?___fladd,w
   893     0FA0  00D2               	movwf	___fldiv@b
   894     0FA1  3044               	movlw	68
   895     0FA2  00D1               	movwf	___fldiv@a+3
   896     0FA3  307F               	movlw	127
   897     0FA4  00D0               	movwf	___fldiv@a+2
   898     0FA5  30C0               	movlw	192
   899     0FA6  00CF               	movwf	___fldiv@a+1
   900     0FA7  3000               	movlw	0
   901     0FA8  00CE               	movwf	___fldiv@a
   902     0FA9  120A  118A  2078  120A  158A  	fcall	___fldiv
   903     0FAE  1283               	bcf	3,5	;RP0=0, select bank0
   904     0FAF  1303               	bcf	3,6	;RP1=0, select bank0
   905     0FB0  0851               	movf	?___fldiv+3,w
   906     0FB1  00EB               	movwf	___fltol@f1+3
   907     0FB2  0850               	movf	?___fldiv+2,w
   908     0FB3  00EA               	movwf	___fltol@f1+2
   909     0FB4  084F               	movf	?___fldiv+1,w
   910     0FB5  00E9               	movwf	___fltol@f1+1
   911     0FB6  084E               	movf	?___fldiv,w
   912     0FB7  00E8               	movwf	___fltol@f1
   913     0FB8  120A  158A  24ED  120A  158A  	fcall	___fltol
   914     0FBD  1283               	bcf	3,5	;RP0=0, select bank0
   915     0FBE  1303               	bcf	3,6	;RP1=0, select bank0
   916     0FBF  0869               	movf	?___fltol+1,w
   917     0FC0  1683               	bsf	3,5	;RP0=1, select bank1
   918     0FC1  1303               	bcf	3,6	;RP1=0, select bank1
   919     0FC2  00B5               	movwf	(_result_ch2+1)^(0+128)
   920     0FC3  1283               	bcf	3,5	;RP0=0, select bank0
   921     0FC4  1303               	bcf	3,6	;RP1=0, select bank0
   922     0FC5  0868               	movf	?___fltol,w
   923     0FC6  1683               	bsf	3,5	;RP0=1, select bank1
   924     0FC7  1303               	bcf	3,6	;RP1=0, select bank1
   925     0FC8  00B4               	movwf	_result_ch2^(0+128)
   926     0FC9                     l2171:
   927                           
   928                           ;ADC+PWM_TASK.c: 67:         lcd_com(0xC5);
   929     0FC9  30C5               	movlw	197
   930     0FCA  120A  158A  2330  120A  158A  	fcall	_lcd_com
   931     0FCF                     l2173:
   932                           
   933                           ;ADC+PWM_TASK.c: 68:         lcd_output_cal(result_ch2);
   934     0FCF  1683               	bsf	3,5	;RP0=1, select bank1
   935     0FD0  1303               	bcf	3,6	;RP1=0, select bank1
   936     0FD1  0835               	movf	(_result_ch2+1)^(0+128),w
   937     0FD2  1283               	bcf	3,5	;RP0=0, select bank0
   938     0FD3  1303               	bcf	3,6	;RP1=0, select bank0
   939     0FD4  00A5               	movwf	lcd_output_cal@i+1
   940     0FD5  1683               	bsf	3,5	;RP0=1, select bank1
   941     0FD6  1303               	bcf	3,6	;RP1=0, select bank1
   942     0FD7  0834               	movf	_result_ch2^(0+128),w
   943     0FD8  1283               	bcf	3,5	;RP0=0, select bank0
   944     0FD9  1303               	bcf	3,6	;RP1=0, select bank0
   945     0FDA  00A4               	movwf	lcd_output_cal@i
   946     0FDB  120A  118A  200B  120A  158A  	fcall	_lcd_output_cal
   947     0FE0                     l2175:
   948                           
   949                           ;ADC+PWM_TASK.c: 71:         update_pwm_duty(result_ch0);
   950     0FE0  1683               	bsf	3,5	;RP0=1, select bank1
   951     0FE1  1303               	bcf	3,6	;RP1=0, select bank1
   952     0FE2  0837               	movf	(_result_ch0+1)^(0+128),w
   953     0FE3  1283               	bcf	3,5	;RP0=0, select bank0
   954     0FE4  1303               	bcf	3,6	;RP1=0, select bank0
   955     0FE5  00A1               	movwf	update_pwm_duty@adc_value+1
   956     0FE6  1683               	bsf	3,5	;RP0=1, select bank1
   957     0FE7  1303               	bcf	3,6	;RP1=0, select bank1
   958     0FE8  0836               	movf	_result_ch0^(0+128),w
   959     0FE9  1283               	bcf	3,5	;RP0=0, select bank0
   960     0FEA  1303               	bcf	3,6	;RP1=0, select bank0
   961     0FEB  00A0               	movwf	update_pwm_duty@adc_value
   962     0FEC  120A  158A  23C0  120A  158A  	fcall	_update_pwm_duty
   963                           
   964                           ;ADC+PWM_TASK.c: 73:         _delay((unsigned long)((100)*(6000000/4000.0)));
   965     0FF1  30C3               	movlw	195
   966     0FF2  1683               	bsf	3,5	;RP0=1, select bank1
   967     0FF3  1303               	bcf	3,6	;RP1=0, select bank1
   968     0FF4  00BF               	movwf	(??_main^(0+128)+1)
   969     0FF5  30CC               	movlw	204
   970     0FF6  00BE               	movwf	??_main^(0+128)
   971     0FF7                     u3237:
   972     0FF7  0BBE               	decfsz	??_main^(0+128),f
   973     0FF8  2FF7               	goto	u3237
   974     0FF9  0BBF               	decfsz	(??_main^(0+128)+1),f
   975     0FFA  2FF7               	goto	u3237
   976     0FFB  0000               	nop
   977     0FFC  2F24               	goto	l2159
   978     0FFD  120A  118A  2800   	ljmp	start
   979     1000                     __end_of_main:
   980                           
   981                           	psect	text1
   982     0BC0                     __ptext1:	
   983 ;; *************** function _update_pwm_duty *****************
   984 ;; Defined at:
   985 ;;		line 119 in file "ADC+PWM_TASK.c"
   986 ;; Parameters:    Size  Location     Type
   987 ;;  adc_value       2    0[BANK0 ] unsigned int 
   988 ;; Auto vars:     Size  Location     Type
   989 ;;  duty_cycle      2    4[BANK0 ] unsigned int 
   990 ;; Return value:  Size  Location     Type
   991 ;;                  1    wreg      void 
   992 ;; Registers used:
   993 ;;		wreg, status,2, status,0, btemp+1, pclath, cstack
   994 ;; Tracked objects:
   995 ;;		On entry : 0/0
   996 ;;		On exit  : 0/0
   997 ;;		Unchanged: 0/0
   998 ;; Data sizes:     COMMON   BANK0   BANK1   BANK3   BANK2
   999 ;;      Params:         0       2       0       0       0
  1000 ;;      Locals:         0       2       0       0       0
  1001 ;;      Temps:          0       2       0       0       0
  1002 ;;      Totals:         0       6       0       0       0
  1003 ;;Total ram usage:        6 bytes
  1004 ;; Hardware stack levels used: 1
  1005 ;; Hardware stack levels required when called: 1
  1006 ;; This function calls:
  1007 ;;		___lwdiv
  1008 ;;		___wmul
  1009 ;; This function is called by:
  1010 ;;		_main
  1011 ;; This function uses a non-reentrant model
  1012 ;;
  1013                           
  1014     0BC0                     _update_pwm_duty:	
  1015                           ;psect for function _update_pwm_duty
  1016                           
  1017     0BC0                     l1553:	
  1018                           ;incstack = 0
  1019                           ; Regs used in _update_pwm_duty: [wreg+status,2+status,0+btemp+1+pclath+cstack]
  1020                           
  1021                           
  1022                           ;ADC+PWM_TASK.c: 120:     unsigned int duty_cycle;;ADC+PWM_TASK.c: 123:     duty_cycle =
      +                           (adc_value * 255) / 1023;
  1023     0BC0  30FF               	movlw	255
  1024     0BC1  00F6               	movwf	___lwdiv@divisor
  1025     0BC2  3003               	movlw	3
  1026     0BC3  00F7               	movwf	___lwdiv@divisor+1
  1027     0BC4  1283               	bcf	3,5	;RP0=0, select bank0
  1028     0BC5  1303               	bcf	3,6	;RP1=0, select bank0
  1029     0BC6  0821               	movf	update_pwm_duty@adc_value+1,w
  1030     0BC7  00F1               	movwf	___wmul@multiplier+1
  1031     0BC8  0820               	movf	update_pwm_duty@adc_value,w
  1032     0BC9  00F0               	movwf	___wmul@multiplier
  1033     0BCA  30FF               	movlw	255
  1034     0BCB  00F2               	movwf	___wmul@multiplicand
  1035     0BCC  3000               	movlw	0
  1036     0BCD  00F3               	movwf	___wmul@multiplicand+1
  1037     0BCE  120A  158A  2347  120A  158A  	fcall	___wmul
  1038     0BD3  0871               	movf	?___wmul+1,w
  1039     0BD4  00F9               	movwf	___lwdiv@dividend+1
  1040     0BD5  0870               	movf	?___wmul,w
  1041     0BD6  00F8               	movwf	___lwdiv@dividend
  1042     0BD7  120A  158A  242B  120A  158A  	fcall	___lwdiv
  1043     0BDC  0877               	movf	?___lwdiv+1,w
  1044     0BDD  1283               	bcf	3,5	;RP0=0, select bank0
  1045     0BDE  1303               	bcf	3,6	;RP1=0, select bank0
  1046     0BDF  00A5               	movwf	update_pwm_duty@duty_cycle+1
  1047     0BE0  0876               	movf	?___lwdiv,w
  1048     0BE1  00A4               	movwf	update_pwm_duty@duty_cycle
  1049     0BE2                     l1555:
  1050                           
  1051                           ;ADC+PWM_TASK.c: 126:     CCPR1L = duty_cycle >> 2;
  1052     0BE2  0825               	movf	update_pwm_duty@duty_cycle+1,w
  1053     0BE3  00A3               	movwf	??_update_pwm_duty+1
  1054     0BE4  0824               	movf	update_pwm_duty@duty_cycle,w
  1055     0BE5  00A2               	movwf	??_update_pwm_duty
  1056     0BE6  1003               	clrc
  1057     0BE7  0CA3               	rrf	??_update_pwm_duty+1,f
  1058     0BE8  0CA2               	rrf	??_update_pwm_duty,f
  1059     0BE9  1003               	clrc
  1060     0BEA  0CA3               	rrf	??_update_pwm_duty+1,f
  1061     0BEB  0CA2               	rrf	??_update_pwm_duty,f
  1062     0BEC  0822               	movf	??_update_pwm_duty,w
  1063     0BED  0095               	movwf	21	;volatile
  1064     0BEE                     l84:
  1065     0BEE  0008               	return
  1066     0BEF                     __end_of_update_pwm_duty:
  1067                           
  1068                           	psect	text2
  1069     0B47                     __ptext2:	
  1070 ;; *************** function ___wmul *****************
  1071 ;; Defined at:
  1072 ;;		line 15 in file "C:\Program Files\Microchip\xc8\v2.46\pic\sources\c99\common\Umul16.c"
  1073 ;; Parameters:    Size  Location     Type
  1074 ;;  multiplier      2    0[COMMON] unsigned int 
  1075 ;;  multiplicand    2    2[COMMON] unsigned int 
  1076 ;; Auto vars:     Size  Location     Type
  1077 ;;  product         2    4[COMMON] unsigned int 
  1078 ;; Return value:  Size  Location     Type
  1079 ;;                  2    0[COMMON] unsigned int 
  1080 ;; Registers used:
  1081 ;;		wreg, status,2, status,0
  1082 ;; Tracked objects:
  1083 ;;		On entry : 0/0
  1084 ;;		On exit  : 0/0
  1085 ;;		Unchanged: 0/0
  1086 ;; Data sizes:     COMMON   BANK0   BANK1   BANK3   BANK2
  1087 ;;      Params:         4       0       0       0       0
  1088 ;;      Locals:         2       0       0       0       0
  1089 ;;      Temps:          0       0       0       0       0
  1090 ;;      Totals:         6       0       0       0       0
  1091 ;;Total ram usage:        6 bytes
  1092 ;; Hardware stack levels used: 1
  1093 ;; This function calls:
  1094 ;;		Nothing
  1095 ;; This function is called by:
  1096 ;;		_update_pwm_duty
  1097 ;; This function uses a non-reentrant model
  1098 ;;
  1099                           
  1100     0B47                     ___wmul:	
  1101                           ;psect for function ___wmul
  1102                           
  1103     0B47                     l1425:	
  1104                           ;incstack = 0
  1105                           ; Regs used in ___wmul: [wreg+status,2+status,0]
  1106                           
  1107     0B47  01F4               	clrf	___wmul@product
  1108     0B48  01F5               	clrf	___wmul@product+1
  1109     0B49                     l1427:
  1110     0B49  1C70               	btfss	___wmul@multiplier,0
  1111     0B4A  2B4C               	goto	u1621
  1112     0B4B  2B4D               	goto	u1620
  1113     0B4C                     u1621:
  1114     0B4C  2B53               	goto	l179
  1115     0B4D                     u1620:
  1116     0B4D                     l1429:
  1117     0B4D  0872               	movf	___wmul@multiplicand,w
  1118     0B4E  07F4               	addwf	___wmul@product,f
  1119     0B4F  1803               	skipnc
  1120     0B50  0AF5               	incf	___wmul@product+1,f
  1121     0B51  0873               	movf	___wmul@multiplicand+1,w
  1122     0B52  07F5               	addwf	___wmul@product+1,f
  1123     0B53                     l179:
  1124     0B53  3001               	movlw	1
  1125     0B54                     u1635:
  1126     0B54  1003               	clrc
  1127     0B55  0DF2               	rlf	___wmul@multiplicand,f
  1128     0B56  0DF3               	rlf	___wmul@multiplicand+1,f
  1129     0B57  3EFF               	addlw	-1
  1130     0B58  1D03               	skipz
  1131     0B59  2B54               	goto	u1635
  1132     0B5A                     l1431:
  1133     0B5A  3001               	movlw	1
  1134     0B5B                     u1645:
  1135     0B5B  1003               	clrc
  1136     0B5C  0CF1               	rrf	___wmul@multiplier+1,f
  1137     0B5D  0CF0               	rrf	___wmul@multiplier,f
  1138     0B5E  3EFF               	addlw	-1
  1139     0B5F  1D03               	skipz
  1140     0B60  2B5B               	goto	u1645
  1141     0B61                     l1433:
  1142     0B61  0870               	movf	___wmul@multiplier,w
  1143     0B62  0471               	iorwf	___wmul@multiplier+1,w
  1144     0B63  1D03               	btfss	3,2
  1145     0B64  2B66               	goto	u1651
  1146     0B65  2B67               	goto	u1650
  1147     0B66                     u1651:
  1148     0B66  2B49               	goto	l1427
  1149     0B67                     u1650:
  1150     0B67                     l1435:
  1151     0B67  0875               	movf	___wmul@product+1,w
  1152     0B68  00F1               	movwf	?___wmul+1
  1153     0B69  0874               	movf	___wmul@product,w
  1154     0B6A  00F0               	movwf	?___wmul
  1155     0B6B                     l181:
  1156     0B6B  0008               	return
  1157     0B6C                     __end_of___wmul:
  1158                           
  1159                           	psect	text3
  1160     0B93                     __ptext3:	
  1161 ;; *************** function _read_adc_channel *****************
  1162 ;; Defined at:
  1163 ;;		line 78 in file "ADC+PWM_TASK.c"
  1164 ;; Parameters:    Size  Location     Type
  1165 ;;  channel         1    wreg     unsigned char 
  1166 ;; Auto vars:     Size  Location     Type
  1167 ;;  channel         1    2[COMMON] unsigned char 
  1168 ;; Return value:  Size  Location     Type
  1169 ;;                  1    wreg      void 
  1170 ;; Registers used:
  1171 ;;		wreg, status,2, status,0
  1172 ;; Tracked objects:
  1173 ;;		On entry : 0/0
  1174 ;;		On exit  : 0/0
  1175 ;;		Unchanged: 0/0
  1176 ;; Data sizes:     COMMON   BANK0   BANK1   BANK3   BANK2
  1177 ;;      Params:         0       0       0       0       0
  1178 ;;      Locals:         1       0       0       0       0
  1179 ;;      Temps:          2       0       0       0       0
  1180 ;;      Totals:         3       0       0       0       0
  1181 ;;Total ram usage:        3 bytes
  1182 ;; Hardware stack levels used: 1
  1183 ;; This function calls:
  1184 ;;		Nothing
  1185 ;; This function is called by:
  1186 ;;		_main
  1187 ;; This function uses a non-reentrant model
  1188 ;;
  1189                           
  1190     0B93                     _read_adc_channel:	
  1191                           ;psect for function _read_adc_channel
  1192                           
  1193                           
  1194                           ;incstack = 0
  1195                           ; Regs used in _read_adc_channel: [wreg+status,2+status,0]
  1196                           ;read_adc_channel@channel stored from wreg
  1197     0B93  00F2               	movwf	read_adc_channel@channel
  1198     0B94                     l1537:
  1199                           
  1200                           ;ADC+PWM_TASK.c: 79:     if (channel == 0) {
  1201     0B94  0872               	movf	read_adc_channel@channel,w
  1202     0B95  1D03               	btfss	3,2
  1203     0B96  2B98               	goto	u1821
  1204     0B97  2B99               	goto	u1820
  1205     0B98                     u1821:
  1206     0B98  2B9E               	goto	l1541
  1207     0B99                     u1820:
  1208     0B99                     l1539:
  1209                           
  1210                           ;ADC+PWM_TASK.c: 80:         ADCON0 = 0x81;
  1211     0B99  3081               	movlw	129
  1212     0B9A  1283               	bcf	3,5	;RP0=0, select bank0
  1213     0B9B  1303               	bcf	3,6	;RP1=0, select bank0
  1214     0B9C  009F               	movwf	31	;volatile
  1215                           
  1216                           ;ADC+PWM_TASK.c: 81:     } else if (channel == 2) {
  1217     0B9D  2BA8               	goto	l1545
  1218     0B9E                     l1541:
  1219     0B9E  3002               	movlw	2
  1220     0B9F  0672               	xorwf	read_adc_channel@channel,w
  1221     0BA0  1D03               	btfss	3,2
  1222     0BA1  2BA3               	goto	u1831
  1223     0BA2  2BA4               	goto	u1830
  1224     0BA3                     u1831:
  1225     0BA3  2BA8               	goto	l1545
  1226     0BA4                     u1830:
  1227     0BA4                     l1543:
  1228                           
  1229                           ;ADC+PWM_TASK.c: 82:         ADCON0 = 0x91;
  1230     0BA4  3091               	movlw	145
  1231     0BA5  1283               	bcf	3,5	;RP0=0, select bank0
  1232     0BA6  1303               	bcf	3,6	;RP1=0, select bank0
  1233     0BA7  009F               	movwf	31	;volatile
  1234     0BA8                     l1545:
  1235                           
  1236                           ;ADC+PWM_TASK.c: 84:     ADCON0 |= 0x04;
  1237     0BA8  1283               	bcf	3,5	;RP0=0, select bank0
  1238     0BA9  1303               	bcf	3,6	;RP1=0, select bank0
  1239     0BAA  151F               	bsf	31,2	;volatile
  1240     0BAB                     l72:	
  1241                           ;ADC+PWM_TASK.c: 85:     while (ADCON0 & 0x04);
  1242                           
  1243     0BAB  191F               	btfsc	31,2	;volatile
  1244     0BAC  2BAE               	goto	u1841
  1245     0BAD  2BAF               	goto	u1840
  1246     0BAE                     u1841:
  1247     0BAE  2BAB               	goto	l72
  1248     0BAF                     u1840:
  1249     0BAF                     l1547:
  1250                           
  1251                           ;ADC+PWM_TASK.c: 86:     adc_high = ADRESH;
  1252     0BAF  081E               	movf	30,w	;volatile
  1253     0BB0  00F0               	movwf	??_read_adc_channel
  1254     0BB1  01F1               	clrf	??_read_adc_channel+1
  1255     0BB2  0870               	movf	??_read_adc_channel,w
  1256     0BB3  1683               	bsf	3,5	;RP0=1, select bank1
  1257     0BB4  1303               	bcf	3,6	;RP1=0, select bank1
  1258     0BB5  00B8               	movwf	_adc_high^(0+128)
  1259     0BB6  0871               	movf	??_read_adc_channel+1,w
  1260     0BB7  00B9               	movwf	(_adc_high+1)^(0+128)
  1261                           
  1262                           ;ADC+PWM_TASK.c: 87:     adc_low = ADRESL;
  1263     0BB8  081E               	movf	30,w	;volatile
  1264     0BB9  00F0               	movwf	??_read_adc_channel
  1265     0BBA  01F1               	clrf	??_read_adc_channel+1
  1266     0BBB  0870               	movf	??_read_adc_channel,w
  1267     0BBC  00BA               	movwf	_adc_low^(0+128)
  1268     0BBD  0871               	movf	??_read_adc_channel+1,w
  1269     0BBE  00BB               	movwf	(_adc_low+1)^(0+128)
  1270     0BBF                     l75:
  1271     0BBF  0008               	return
  1272     0BC0                     __end_of_read_adc_channel:
  1273                           
  1274                           	psect	text4
  1275     0D7B                     __ptext4:	
  1276 ;; *************** function _lcd_output_raw *****************
  1277 ;; Defined at:
  1278 ;;		line 91 in file "ADC+PWM_TASK.c"
  1279 ;; Parameters:    Size  Location     Type
  1280 ;;  i               2    4[BANK0 ] unsigned int 
  1281 ;; Auto vars:     Size  Location     Type
  1282 ;;  k               5    6[BANK0 ] unsigned char [5]
  1283 ;; Return value:  Size  Location     Type
  1284 ;;                  1    wreg      void 
  1285 ;; Registers used:
  1286 ;;		wreg, status,2, status,0, btemp+1, pclath, cstack
  1287 ;; Tracked objects:
  1288 ;;		On entry : 0/0
  1289 ;;		On exit  : 0/0
  1290 ;;		Unchanged: 0/0
  1291 ;; Data sizes:     COMMON   BANK0   BANK1   BANK3   BANK2
  1292 ;;      Params:         0       2       0       0       0
  1293 ;;      Locals:         0       5       0       0       0
  1294 ;;      Temps:          0       0       0       0       0
  1295 ;;      Totals:         0       7       0       0       0
  1296 ;;Total ram usage:        7 bytes
  1297 ;; Hardware stack levels used: 1
  1298 ;; Hardware stack levels required when called: 1
  1299 ;; This function calls:
  1300 ;;		___lwdiv
  1301 ;;		___lwmod
  1302 ;;		_lcd_data
  1303 ;; This function is called by:
  1304 ;;		_main
  1305 ;; This function uses a non-reentrant model
  1306 ;;
  1307                           
  1308     0D7B                     _lcd_output_raw:	
  1309                           ;psect for function _lcd_output_raw
  1310                           
  1311     0D7B                     l1549:	
  1312                           ;incstack = 0
  1313                           ; Regs used in _lcd_output_raw: [wreg+status,2+status,0+btemp+1+pclath+cstack]
  1314                           
  1315                           
  1316                           ;ADC+PWM_TASK.c: 92:     unsigned char k[5];;ADC+PWM_TASK.c: 93:     k[0] = (i / 1000) %
      +                           10;
  1317     0D7B  300A               	movlw	10
  1318     0D7C  1283               	bcf	3,5	;RP0=0, select bank0
  1319     0D7D  1303               	bcf	3,6	;RP1=0, select bank0
  1320     0D7E  00A0               	movwf	___lwmod@divisor
  1321     0D7F  3000               	movlw	0
  1322     0D80  00A1               	movwf	___lwmod@divisor+1
  1323     0D81  30E8               	movlw	232
  1324     0D82  00F6               	movwf	___lwdiv@divisor
  1325     0D83  3003               	movlw	3
  1326     0D84  00F7               	movwf	___lwdiv@divisor+1
  1327     0D85  0825               	movf	lcd_output_raw@i+1,w
  1328     0D86  00F9               	movwf	___lwdiv@dividend+1
  1329     0D87  0824               	movf	lcd_output_raw@i,w
  1330     0D88  00F8               	movwf	___lwdiv@dividend
  1331     0D89  120A  158A  242B  120A  158A  	fcall	___lwdiv
  1332     0D8E  0877               	movf	?___lwdiv+1,w
  1333     0D8F  1283               	bcf	3,5	;RP0=0, select bank0
  1334     0D90  1303               	bcf	3,6	;RP1=0, select bank0
  1335     0D91  00A3               	movwf	___lwmod@dividend+1
  1336     0D92  0876               	movf	?___lwdiv,w
  1337     0D93  00A2               	movwf	___lwmod@dividend
  1338     0D94  120A  158A  23EF  120A  158A  	fcall	___lwmod
  1339     0D99  1283               	bcf	3,5	;RP0=0, select bank0
  1340     0D9A  1303               	bcf	3,6	;RP1=0, select bank0
  1341     0D9B  0820               	movf	?___lwmod,w
  1342     0D9C  00A6               	movwf	lcd_output_raw@k
  1343                           
  1344                           ;ADC+PWM_TASK.c: 94:     k[1] = (i / 100) % 10;
  1345     0D9D  300A               	movlw	10
  1346     0D9E  00A0               	movwf	___lwmod@divisor
  1347     0D9F  3000               	movlw	0
  1348     0DA0  00A1               	movwf	___lwmod@divisor+1
  1349     0DA1  3064               	movlw	100
  1350     0DA2  00F6               	movwf	___lwdiv@divisor
  1351     0DA3  3000               	movlw	0
  1352     0DA4  00F7               	movwf	___lwdiv@divisor+1
  1353     0DA5  0825               	movf	lcd_output_raw@i+1,w
  1354     0DA6  00F9               	movwf	___lwdiv@dividend+1
  1355     0DA7  0824               	movf	lcd_output_raw@i,w
  1356     0DA8  00F8               	movwf	___lwdiv@dividend
  1357     0DA9  120A  158A  242B  120A  158A  	fcall	___lwdiv
  1358     0DAE  0877               	movf	?___lwdiv+1,w
  1359     0DAF  1283               	bcf	3,5	;RP0=0, select bank0
  1360     0DB0  1303               	bcf	3,6	;RP1=0, select bank0
  1361     0DB1  00A3               	movwf	___lwmod@dividend+1
  1362     0DB2  0876               	movf	?___lwdiv,w
  1363     0DB3  00A2               	movwf	___lwmod@dividend
  1364     0DB4  120A  158A  23EF  120A  158A  	fcall	___lwmod
  1365     0DB9  1283               	bcf	3,5	;RP0=0, select bank0
  1366     0DBA  1303               	bcf	3,6	;RP1=0, select bank0
  1367     0DBB  0820               	movf	?___lwmod,w
  1368     0DBC  00A7               	movwf	lcd_output_raw@k+1
  1369                           
  1370                           ;ADC+PWM_TASK.c: 95:     k[2] = (i / 10) % 10;
  1371     0DBD  300A               	movlw	10
  1372     0DBE  00A0               	movwf	___lwmod@divisor
  1373     0DBF  3000               	movlw	0
  1374     0DC0  00A1               	movwf	___lwmod@divisor+1
  1375     0DC1  300A               	movlw	10
  1376     0DC2  00F6               	movwf	___lwdiv@divisor
  1377     0DC3  3000               	movlw	0
  1378     0DC4  00F7               	movwf	___lwdiv@divisor+1
  1379     0DC5  0825               	movf	lcd_output_raw@i+1,w
  1380     0DC6  00F9               	movwf	___lwdiv@dividend+1
  1381     0DC7  0824               	movf	lcd_output_raw@i,w
  1382     0DC8  00F8               	movwf	___lwdiv@dividend
  1383     0DC9  120A  158A  242B  120A  158A  	fcall	___lwdiv
  1384     0DCE  0877               	movf	?___lwdiv+1,w
  1385     0DCF  1283               	bcf	3,5	;RP0=0, select bank0
  1386     0DD0  1303               	bcf	3,6	;RP1=0, select bank0
  1387     0DD1  00A3               	movwf	___lwmod@dividend+1
  1388     0DD2  0876               	movf	?___lwdiv,w
  1389     0DD3  00A2               	movwf	___lwmod@dividend
  1390     0DD4  120A  158A  23EF  120A  158A  	fcall	___lwmod
  1391     0DD9  1283               	bcf	3,5	;RP0=0, select bank0
  1392     0DDA  1303               	bcf	3,6	;RP1=0, select bank0
  1393     0DDB  0820               	movf	?___lwmod,w
  1394     0DDC  00A8               	movwf	lcd_output_raw@k+2
  1395                           
  1396                           ;ADC+PWM_TASK.c: 96:     k[3] = i % 10;
  1397     0DDD  300A               	movlw	10
  1398     0DDE  00A0               	movwf	___lwmod@divisor
  1399     0DDF  3000               	movlw	0
  1400     0DE0  00A1               	movwf	___lwmod@divisor+1
  1401     0DE1  0825               	movf	lcd_output_raw@i+1,w
  1402     0DE2  00A3               	movwf	___lwmod@dividend+1
  1403     0DE3  0824               	movf	lcd_output_raw@i,w
  1404     0DE4  00A2               	movwf	___lwmod@dividend
  1405     0DE5  120A  158A  23EF  120A  158A  	fcall	___lwmod
  1406     0DEA  1283               	bcf	3,5	;RP0=0, select bank0
  1407     0DEB  1303               	bcf	3,6	;RP1=0, select bank0
  1408     0DEC  0820               	movf	?___lwmod,w
  1409     0DED  00A9               	movwf	lcd_output_raw@k+3
  1410                           
  1411                           ;ADC+PWM_TASK.c: 99:     lcd_data(0x30 + k[0]);
  1412     0DEE  0826               	movf	lcd_output_raw@k,w
  1413     0DEF  3E30               	addlw	48
  1414     0DF0  120A  158A  2308  120A  158A  	fcall	_lcd_data
  1415                           
  1416                           ;ADC+PWM_TASK.c: 100:     lcd_data(0x30 + k[1]);
  1417     0DF5  1283               	bcf	3,5	;RP0=0, select bank0
  1418     0DF6  1303               	bcf	3,6	;RP1=0, select bank0
  1419     0DF7  0827               	movf	lcd_output_raw@k+1,w
  1420     0DF8  3E30               	addlw	48
  1421     0DF9  120A  158A  2308  120A  158A  	fcall	_lcd_data
  1422                           
  1423                           ;ADC+PWM_TASK.c: 101:     lcd_data(0x30 + k[2]);
  1424     0DFE  1283               	bcf	3,5	;RP0=0, select bank0
  1425     0DFF  1303               	bcf	3,6	;RP1=0, select bank0
  1426     0E00  0828               	movf	lcd_output_raw@k+2,w
  1427     0E01  3E30               	addlw	48
  1428     0E02  120A  158A  2308  120A  158A  	fcall	_lcd_data
  1429                           
  1430                           ;ADC+PWM_TASK.c: 102:     lcd_data(0x30 + k[3]);
  1431     0E07  1283               	bcf	3,5	;RP0=0, select bank0
  1432     0E08  1303               	bcf	3,6	;RP1=0, select bank0
  1433     0E09  0829               	movf	lcd_output_raw@k+3,w
  1434     0E0A  3E30               	addlw	48
  1435     0E0B  120A  158A  2308  120A  158A  	fcall	_lcd_data
  1436     0E10                     l78:
  1437     0E10  0008               	return
  1438     0E11                     __end_of_lcd_output_raw:
  1439                           
  1440                           	psect	text5
  1441     000B                     __ptext5:	
  1442 ;; *************** function _lcd_output_cal *****************
  1443 ;; Defined at:
  1444 ;;		line 106 in file "ADC+PWM_TASK.c"
  1445 ;; Parameters:    Size  Location     Type
  1446 ;;  i               2    4[BANK0 ] unsigned int 
  1447 ;; Auto vars:     Size  Location     Type
  1448 ;;  k               3    6[BANK0 ] unsigned char [3]
  1449 ;; Return value:  Size  Location     Type
  1450 ;;                  1    wreg      void 
  1451 ;; Registers used:
  1452 ;;		wreg, status,2, status,0, btemp+1, pclath, cstack
  1453 ;; Tracked objects:
  1454 ;;		On entry : 0/0
  1455 ;;		On exit  : 0/0
  1456 ;;		Unchanged: 0/0
  1457 ;; Data sizes:     COMMON   BANK0   BANK1   BANK3   BANK2
  1458 ;;      Params:         0       2       0       0       0
  1459 ;;      Locals:         0       3       0       0       0
  1460 ;;      Temps:          0       0       0       0       0
  1461 ;;      Totals:         0       5       0       0       0
  1462 ;;Total ram usage:        5 bytes
  1463 ;; Hardware stack levels used: 1
  1464 ;; Hardware stack levels required when called: 1
  1465 ;; This function calls:
  1466 ;;		___lwdiv
  1467 ;;		___lwmod
  1468 ;;		_lcd_data
  1469 ;; This function is called by:
  1470 ;;		_main
  1471 ;; This function uses a non-reentrant model
  1472 ;;
  1473                           
  1474     000B                     _lcd_output_cal:	
  1475                           ;psect for function _lcd_output_cal
  1476                           
  1477     000B                     l1551:	
  1478                           ;incstack = 0
  1479                           ; Regs used in _lcd_output_cal: [wreg+status,2+status,0+btemp+1+pclath+cstack]
  1480                           
  1481                           
  1482                           ;ADC+PWM_TASK.c: 107:     unsigned char k[3];;ADC+PWM_TASK.c: 108:     k[0] = (i / 100) 
      +                          % 10;
  1483     000B  300A               	movlw	10
  1484     000C  1283               	bcf	3,5	;RP0=0, select bank0
  1485     000D  1303               	bcf	3,6	;RP1=0, select bank0
  1486     000E  00A0               	movwf	___lwmod@divisor
  1487     000F  3000               	movlw	0
  1488     0010  00A1               	movwf	___lwmod@divisor+1
  1489     0011  3064               	movlw	100
  1490     0012  00F6               	movwf	___lwdiv@divisor
  1491     0013  3000               	movlw	0
  1492     0014  00F7               	movwf	___lwdiv@divisor+1
  1493     0015  0825               	movf	lcd_output_cal@i+1,w
  1494     0016  00F9               	movwf	___lwdiv@dividend+1
  1495     0017  0824               	movf	lcd_output_cal@i,w
  1496     0018  00F8               	movwf	___lwdiv@dividend
  1497     0019  120A  158A  242B  120A  118A  	fcall	___lwdiv
  1498     001E  0877               	movf	?___lwdiv+1,w
  1499     001F  1283               	bcf	3,5	;RP0=0, select bank0
  1500     0020  1303               	bcf	3,6	;RP1=0, select bank0
  1501     0021  00A3               	movwf	___lwmod@dividend+1
  1502     0022  0876               	movf	?___lwdiv,w
  1503     0023  00A2               	movwf	___lwmod@dividend
  1504     0024  120A  158A  23EF  120A  118A  	fcall	___lwmod
  1505     0029  1283               	bcf	3,5	;RP0=0, select bank0
  1506     002A  1303               	bcf	3,6	;RP1=0, select bank0
  1507     002B  0820               	movf	?___lwmod,w
  1508     002C  00A6               	movwf	lcd_output_cal@k
  1509                           
  1510                           ;ADC+PWM_TASK.c: 109:     k[1] = (i / 10) % 10;
  1511     002D  300A               	movlw	10
  1512     002E  00A0               	movwf	___lwmod@divisor
  1513     002F  3000               	movlw	0
  1514     0030  00A1               	movwf	___lwmod@divisor+1
  1515     0031  300A               	movlw	10
  1516     0032  00F6               	movwf	___lwdiv@divisor
  1517     0033  3000               	movlw	0
  1518     0034  00F7               	movwf	___lwdiv@divisor+1
  1519     0035  0825               	movf	lcd_output_cal@i+1,w
  1520     0036  00F9               	movwf	___lwdiv@dividend+1
  1521     0037  0824               	movf	lcd_output_cal@i,w
  1522     0038  00F8               	movwf	___lwdiv@dividend
  1523     0039  120A  158A  242B  120A  118A  	fcall	___lwdiv
  1524     003E  0877               	movf	?___lwdiv+1,w
  1525     003F  1283               	bcf	3,5	;RP0=0, select bank0
  1526     0040  1303               	bcf	3,6	;RP1=0, select bank0
  1527     0041  00A3               	movwf	___lwmod@dividend+1
  1528     0042  0876               	movf	?___lwdiv,w
  1529     0043  00A2               	movwf	___lwmod@dividend
  1530     0044  120A  158A  23EF  120A  118A  	fcall	___lwmod
  1531     0049  1283               	bcf	3,5	;RP0=0, select bank0
  1532     004A  1303               	bcf	3,6	;RP1=0, select bank0
  1533     004B  0820               	movf	?___lwmod,w
  1534     004C  00A7               	movwf	lcd_output_cal@k+1
  1535                           
  1536                           ;ADC+PWM_TASK.c: 110:     k[2] = i % 10;
  1537     004D  300A               	movlw	10
  1538     004E  00A0               	movwf	___lwmod@divisor
  1539     004F  3000               	movlw	0
  1540     0050  00A1               	movwf	___lwmod@divisor+1
  1541     0051  0825               	movf	lcd_output_cal@i+1,w
  1542     0052  00A3               	movwf	___lwmod@dividend+1
  1543     0053  0824               	movf	lcd_output_cal@i,w
  1544     0054  00A2               	movwf	___lwmod@dividend
  1545     0055  120A  158A  23EF  120A  118A  	fcall	___lwmod
  1546     005A  1283               	bcf	3,5	;RP0=0, select bank0
  1547     005B  1303               	bcf	3,6	;RP1=0, select bank0
  1548     005C  0820               	movf	?___lwmod,w
  1549     005D  00A8               	movwf	lcd_output_cal@k+2
  1550                           
  1551                           ;ADC+PWM_TASK.c: 113:     lcd_data(0x30 + k[0]);
  1552     005E  0826               	movf	lcd_output_cal@k,w
  1553     005F  3E30               	addlw	48
  1554     0060  120A  158A  2308  120A  118A  	fcall	_lcd_data
  1555                           
  1556                           ;ADC+PWM_TASK.c: 114:     lcd_data(0x30 + k[1]);
  1557     0065  1283               	bcf	3,5	;RP0=0, select bank0
  1558     0066  1303               	bcf	3,6	;RP1=0, select bank0
  1559     0067  0827               	movf	lcd_output_cal@k+1,w
  1560     0068  3E30               	addlw	48
  1561     0069  120A  158A  2308  120A  118A  	fcall	_lcd_data
  1562                           
  1563                           ;ADC+PWM_TASK.c: 115:     lcd_data(0x30 + k[2]);
  1564     006E  1283               	bcf	3,5	;RP0=0, select bank0
  1565     006F  1303               	bcf	3,6	;RP1=0, select bank0
  1566     0070  0828               	movf	lcd_output_cal@k+2,w
  1567     0071  3E30               	addlw	48
  1568     0072  120A  158A  2308  120A  118A  	fcall	_lcd_data
  1569     0077                     l81:
  1570     0077  0008               	return
  1571     0078                     __end_of_lcd_output_cal:
  1572                           
  1573                           	psect	text6
  1574     0B08                     __ptext6:	
  1575 ;; *************** function _lcd_data *****************
  1576 ;; Defined at:
  1577 ;;		line 172 in file "ADC+PWM_TASK.c"
  1578 ;; Parameters:    Size  Location     Type
  1579 ;;  i               1    wreg     unsigned char 
  1580 ;; Auto vars:     Size  Location     Type
  1581 ;;  i               1    2[COMMON] unsigned char 
  1582 ;; Return value:  Size  Location     Type
  1583 ;;                  1    wreg      void 
  1584 ;; Registers used:
  1585 ;;		wreg, status,2, status,0, btemp+1
  1586 ;; Tracked objects:
  1587 ;;		On entry : 0/0
  1588 ;;		On exit  : 0/0
  1589 ;;		Unchanged: 0/0
  1590 ;; Data sizes:     COMMON   BANK0   BANK1   BANK3   BANK2
  1591 ;;      Params:         0       0       0       0       0
  1592 ;;      Locals:         1       0       0       0       0
  1593 ;;      Temps:          2       0       0       0       0
  1594 ;;      Totals:         3       0       0       0       0
  1595 ;;Total ram usage:        3 bytes
  1596 ;; Hardware stack levels used: 1
  1597 ;; This function calls:
  1598 ;;		Nothing
  1599 ;; This function is called by:
  1600 ;;		_main
  1601 ;;		_lcd_output_raw
  1602 ;;		_lcd_output_cal
  1603 ;; This function uses a non-reentrant model
  1604 ;;
  1605                           
  1606     0B08                     _lcd_data:	
  1607                           ;psect for function _lcd_data
  1608                           
  1609                           
  1610                           ;incstack = 0
  1611                           ; Regs used in _lcd_data: [wreg+status,2+status,0+btemp+1]
  1612                           ;lcd_data@i stored from wreg
  1613     0B08  00F2               	movwf	lcd_data@i
  1614     0B09                     l1415:
  1615                           
  1616                           ;ADC+PWM_TASK.c: 173:     PORTC |= 0x08;
  1617     0B09  1283               	bcf	3,5	;RP0=0, select bank0
  1618     0B0A  1303               	bcf	3,6	;RP1=0, select bank0
  1619     0B0B  1587               	bsf	7,3	;volatile
  1620     0B0C                     l1417:
  1621                           
  1622                           ;ADC+PWM_TASK.c: 174:     PORTD = i;
  1623     0B0C  0872               	movf	lcd_data@i,w
  1624     0B0D  0088               	movwf	8	;volatile
  1625     0B0E                     l1419:
  1626                           
  1627                           ;ADC+PWM_TASK.c: 175:     PORTC |= 0x01;
  1628     0B0E  1407               	bsf	7,0	;volatile
  1629     0B0F                     l1421:
  1630                           
  1631                           ;ADC+PWM_TASK.c: 176:     PORTC &= ~0x01;
  1632     0B0F  30FE               	movlw	254
  1633     0B10  00FF               	movwf	btemp+1
  1634     0B11  087F               	movf	btemp+1,w
  1635     0B12  0587               	andwf	7,f	;volatile
  1636     0B13                     l1423:
  1637                           
  1638                           ;ADC+PWM_TASK.c: 177:     _delay((unsigned long)((100)*(6000000/4000.0)));
  1639     0B13  30C3               	movlw	195
  1640     0B14  00F1               	movwf	??_lcd_data+1
  1641     0B15  30CD               	movlw	205
  1642     0B16  00F0               	movwf	??_lcd_data
  1643     0B17                     u3247:
  1644     0B17  0BF0               	decfsz	??_lcd_data,f
  1645     0B18  2B17               	goto	u3247
  1646     0B19  0BF1               	decfsz	??_lcd_data+1,f
  1647     0B1A  2B17               	goto	u3247
  1648     0B1B                     l93:
  1649     0B1B  0008               	return
  1650     0B1C                     __end_of_lcd_data:
  1651                           
  1652                           	psect	text7
  1653     0BEF                     __ptext7:	
  1654 ;; *************** function ___lwmod *****************
  1655 ;; Defined at:
  1656 ;;		line 5 in file "C:\Program Files\Microchip\xc8\v2.46\pic\sources\c99\common\lwmod.c"
  1657 ;; Parameters:    Size  Location     Type
  1658 ;;  divisor         2    0[BANK0 ] unsigned int 
  1659 ;;  dividend        2    2[BANK0 ] unsigned int 
  1660 ;; Auto vars:     Size  Location     Type
  1661 ;;  counter         1   13[COMMON] unsigned char 
  1662 ;; Return value:  Size  Location     Type
  1663 ;;                  2    0[BANK0 ] unsigned int 
  1664 ;; Registers used:
  1665 ;;		wreg, status,2, status,0, btemp+1
  1666 ;; Tracked objects:
  1667 ;;		On entry : 0/0
  1668 ;;		On exit  : 0/0
  1669 ;;		Unchanged: 0/0
  1670 ;; Data sizes:     COMMON   BANK0   BANK1   BANK3   BANK2
  1671 ;;      Params:         0       4       0       0       0
  1672 ;;      Locals:         1       0       0       0       0
  1673 ;;      Temps:          0       0       0       0       0
  1674 ;;      Totals:         1       4       0       0       0
  1675 ;;Total ram usage:        5 bytes
  1676 ;; Hardware stack levels used: 1
  1677 ;; This function calls:
  1678 ;;		Nothing
  1679 ;; This function is called by:
  1680 ;;		_lcd_output_raw
  1681 ;;		_lcd_output_cal
  1682 ;; This function uses a non-reentrant model
  1683 ;;
  1684                           
  1685     0BEF                     ___lwmod:	
  1686                           ;psect for function ___lwmod
  1687                           
  1688     0BEF                     l1465:	
  1689                           ;incstack = 0
  1690                           ; Regs used in ___lwmod: [wreg+status,2+status,0+btemp+1]
  1691                           
  1692     0BEF  1283               	bcf	3,5	;RP0=0, select bank0
  1693     0BF0  1303               	bcf	3,6	;RP1=0, select bank0
  1694     0BF1  0820               	movf	___lwmod@divisor,w
  1695     0BF2  0421               	iorwf	___lwmod@divisor+1,w
  1696     0BF3  1903               	btfsc	3,2
  1697     0BF4  2BF6               	goto	u1731
  1698     0BF5  2BF7               	goto	u1730
  1699     0BF6                     u1731:
  1700     0BF6  2C26               	goto	l1483
  1701     0BF7                     u1730:
  1702     0BF7                     l1467:
  1703     0BF7  01FD               	clrf	___lwmod@counter
  1704     0BF8  0AFD               	incf	___lwmod@counter,f
  1705     0BF9  2C05               	goto	l1473
  1706     0BFA                     l1469:
  1707     0BFA  3001               	movlw	1
  1708     0BFB                     u1745:
  1709     0BFB  1003               	clrc
  1710     0BFC  0DA0               	rlf	___lwmod@divisor,f
  1711     0BFD  0DA1               	rlf	___lwmod@divisor+1,f
  1712     0BFE  3EFF               	addlw	-1
  1713     0BFF  1D03               	skipz
  1714     0C00  2BFB               	goto	u1745
  1715     0C01                     l1471:
  1716     0C01  3001               	movlw	1
  1717     0C02  00FF               	movwf	btemp+1
  1718     0C03  087F               	movf	btemp+1,w
  1719     0C04  07FD               	addwf	___lwmod@counter,f
  1720     0C05                     l1473:
  1721     0C05  1FA1               	btfss	___lwmod@divisor+1,7
  1722     0C06  2C08               	goto	u1751
  1723     0C07  2C09               	goto	u1750
  1724     0C08                     u1751:
  1725     0C08  2BFA               	goto	l1469
  1726     0C09                     u1750:
  1727     0C09                     l1475:
  1728     0C09  0821               	movf	___lwmod@divisor+1,w
  1729     0C0A  0223               	subwf	___lwmod@dividend+1,w
  1730     0C0B  1D03               	skipz
  1731     0C0C  2C0F               	goto	u1765
  1732     0C0D  0820               	movf	___lwmod@divisor,w
  1733     0C0E  0222               	subwf	___lwmod@dividend,w
  1734     0C0F                     u1765:
  1735     0C0F  1C03               	skipc
  1736     0C10  2C12               	goto	u1761
  1737     0C11  2C13               	goto	u1760
  1738     0C12                     u1761:
  1739     0C12  2C19               	goto	l1479
  1740     0C13                     u1760:
  1741     0C13                     l1477:
  1742     0C13  0820               	movf	___lwmod@divisor,w
  1743     0C14  02A2               	subwf	___lwmod@dividend,f
  1744     0C15  0821               	movf	___lwmod@divisor+1,w
  1745     0C16  1C03               	skipc
  1746     0C17  03A3               	decf	___lwmod@dividend+1,f
  1747     0C18  02A3               	subwf	___lwmod@dividend+1,f
  1748     0C19                     l1479:
  1749     0C19  3001               	movlw	1
  1750     0C1A                     u1775:
  1751     0C1A  1003               	clrc
  1752     0C1B  0CA1               	rrf	___lwmod@divisor+1,f
  1753     0C1C  0CA0               	rrf	___lwmod@divisor,f
  1754     0C1D  3EFF               	addlw	-1
  1755     0C1E  1D03               	skipz
  1756     0C1F  2C1A               	goto	u1775
  1757     0C20                     l1481:
  1758     0C20  3001               	movlw	1
  1759     0C21  02FD               	subwf	___lwmod@counter,f
  1760     0C22  1D03               	btfss	3,2
  1761     0C23  2C25               	goto	u1781
  1762     0C24  2C26               	goto	u1780
  1763     0C25                     u1781:
  1764     0C25  2C09               	goto	l1475
  1765     0C26                     u1780:
  1766     0C26                     l1483:
  1767     0C26  0823               	movf	___lwmod@dividend+1,w
  1768     0C27  00A1               	movwf	?___lwmod+1
  1769     0C28  0822               	movf	___lwmod@dividend,w
  1770     0C29  00A0               	movwf	?___lwmod
  1771     0C2A                     l469:
  1772     0C2A  0008               	return
  1773     0C2B                     __end_of___lwmod:
  1774                           
  1775                           	psect	text8
  1776     0C2B                     __ptext8:	
  1777 ;; *************** function ___lwdiv *****************
  1778 ;; Defined at:
  1779 ;;		line 5 in file "C:\Program Files\Microchip\xc8\v2.46\pic\sources\c99\common\lwdiv.c"
  1780 ;; Parameters:    Size  Location     Type
  1781 ;;  divisor         2    6[COMMON] unsigned int 
  1782 ;;  dividend        2    8[COMMON] unsigned int 
  1783 ;; Auto vars:     Size  Location     Type
  1784 ;;  quotient        2   10[COMMON] unsigned int 
  1785 ;;  counter         1   12[COMMON] unsigned char 
  1786 ;; Return value:  Size  Location     Type
  1787 ;;                  2    6[COMMON] unsigned int 
  1788 ;; Registers used:
  1789 ;;		wreg, status,2, status,0, btemp+1
  1790 ;; Tracked objects:
  1791 ;;		On entry : 0/0
  1792 ;;		On exit  : 0/0
  1793 ;;		Unchanged: 0/0
  1794 ;; Data sizes:     COMMON   BANK0   BANK1   BANK3   BANK2
  1795 ;;      Params:         4       0       0       0       0
  1796 ;;      Locals:         3       0       0       0       0
  1797 ;;      Temps:          0       0       0       0       0
  1798 ;;      Totals:         7       0       0       0       0
  1799 ;;Total ram usage:        7 bytes
  1800 ;; Hardware stack levels used: 1
  1801 ;; This function calls:
  1802 ;;		Nothing
  1803 ;; This function is called by:
  1804 ;;		_lcd_output_raw
  1805 ;;		_lcd_output_cal
  1806 ;;		_update_pwm_duty
  1807 ;; This function uses a non-reentrant model
  1808 ;;
  1809                           
  1810     0C2B                     ___lwdiv:	
  1811                           ;psect for function ___lwdiv
  1812                           
  1813     0C2B                     l1439:	
  1814                           ;incstack = 0
  1815                           ; Regs used in ___lwdiv: [wreg+status,2+status,0+btemp+1]
  1816                           
  1817     0C2B  01FA               	clrf	___lwdiv@quotient
  1818     0C2C  01FB               	clrf	___lwdiv@quotient+1
  1819     0C2D                     l1441:
  1820     0C2D  0876               	movf	___lwdiv@divisor,w
  1821     0C2E  0477               	iorwf	___lwdiv@divisor+1,w
  1822     0C2F  1903               	btfsc	3,2
  1823     0C30  2C32               	goto	u1661
  1824     0C31  2C33               	goto	u1660
  1825     0C32                     u1661:
  1826     0C32  2C6A               	goto	l1461
  1827     0C33                     u1660:
  1828     0C33                     l1443:
  1829     0C33  01FC               	clrf	___lwdiv@counter
  1830     0C34  0AFC               	incf	___lwdiv@counter,f
  1831     0C35  2C41               	goto	l1449
  1832     0C36                     l1445:
  1833     0C36  3001               	movlw	1
  1834     0C37                     u1675:
  1835     0C37  1003               	clrc
  1836     0C38  0DF6               	rlf	___lwdiv@divisor,f
  1837     0C39  0DF7               	rlf	___lwdiv@divisor+1,f
  1838     0C3A  3EFF               	addlw	-1
  1839     0C3B  1D03               	skipz
  1840     0C3C  2C37               	goto	u1675
  1841     0C3D                     l1447:
  1842     0C3D  3001               	movlw	1
  1843     0C3E  00FF               	movwf	btemp+1
  1844     0C3F  087F               	movf	btemp+1,w
  1845     0C40  07FC               	addwf	___lwdiv@counter,f
  1846     0C41                     l1449:
  1847     0C41  1FF7               	btfss	___lwdiv@divisor+1,7
  1848     0C42  2C44               	goto	u1681
  1849     0C43  2C45               	goto	u1680
  1850     0C44                     u1681:
  1851     0C44  2C36               	goto	l1445
  1852     0C45                     u1680:
  1853     0C45                     l1451:
  1854     0C45  3001               	movlw	1
  1855     0C46                     u1695:
  1856     0C46  1003               	clrc
  1857     0C47  0DFA               	rlf	___lwdiv@quotient,f
  1858     0C48  0DFB               	rlf	___lwdiv@quotient+1,f
  1859     0C49  3EFF               	addlw	-1
  1860     0C4A  1D03               	skipz
  1861     0C4B  2C46               	goto	u1695
  1862     0C4C  0877               	movf	___lwdiv@divisor+1,w
  1863     0C4D  0279               	subwf	___lwdiv@dividend+1,w
  1864     0C4E  1D03               	skipz
  1865     0C4F  2C52               	goto	u1705
  1866     0C50  0876               	movf	___lwdiv@divisor,w
  1867     0C51  0278               	subwf	___lwdiv@dividend,w
  1868     0C52                     u1705:
  1869     0C52  1C03               	skipc
  1870     0C53  2C55               	goto	u1701
  1871     0C54  2C56               	goto	u1700
  1872     0C55                     u1701:
  1873     0C55  2C5D               	goto	l1457
  1874     0C56                     u1700:
  1875     0C56                     l1453:
  1876     0C56  0876               	movf	___lwdiv@divisor,w
  1877     0C57  02F8               	subwf	___lwdiv@dividend,f
  1878     0C58  0877               	movf	___lwdiv@divisor+1,w
  1879     0C59  1C03               	skipc
  1880     0C5A  03F9               	decf	___lwdiv@dividend+1,f
  1881     0C5B  02F9               	subwf	___lwdiv@dividend+1,f
  1882     0C5C                     l1455:
  1883     0C5C  147A               	bsf	___lwdiv@quotient,0
  1884     0C5D                     l1457:
  1885     0C5D  3001               	movlw	1
  1886     0C5E                     u1715:
  1887     0C5E  1003               	clrc
  1888     0C5F  0CF7               	rrf	___lwdiv@divisor+1,f
  1889     0C60  0CF6               	rrf	___lwdiv@divisor,f
  1890     0C61  3EFF               	addlw	-1
  1891     0C62  1D03               	skipz
  1892     0C63  2C5E               	goto	u1715
  1893     0C64                     l1459:
  1894     0C64  3001               	movlw	1
  1895     0C65  02FC               	subwf	___lwdiv@counter,f
  1896     0C66  1D03               	btfss	3,2
  1897     0C67  2C69               	goto	u1721
  1898     0C68  2C6A               	goto	u1720
  1899     0C69                     u1721:
  1900     0C69  2C45               	goto	l1451
  1901     0C6A                     u1720:
  1902     0C6A                     l1461:
  1903     0C6A  087B               	movf	___lwdiv@quotient+1,w
  1904     0C6B  00F7               	movwf	?___lwdiv+1
  1905     0C6C  087A               	movf	___lwdiv@quotient,w
  1906     0C6D  00F6               	movwf	?___lwdiv
  1907     0C6E                     l459:
  1908     0C6E  0008               	return
  1909     0C6F                     __end_of___lwdiv:
  1910                           
  1911                           	psect	text9
  1912     0C6F                     __ptext9:	
  1913 ;; *************** function _init *****************
  1914 ;; Defined at:
  1915 ;;		line 130 in file "ADC+PWM_TASK.c"
  1916 ;; Parameters:    Size  Location     Type
  1917 ;;		None
  1918 ;; Auto vars:     Size  Location     Type
  1919 ;;		None
  1920 ;; Return value:  Size  Location     Type
  1921 ;;                  1    wreg      void 
  1922 ;; Registers used:
  1923 ;;		wreg, status,2, status,0, btemp+1, pclath, cstack
  1924 ;; Tracked objects:
  1925 ;;		On entry : 0/0
  1926 ;;		On exit  : 0/0
  1927 ;;		Unchanged: 0/0
  1928 ;; Data sizes:     COMMON   BANK0   BANK1   BANK3   BANK2
  1929 ;;      Params:         0       0       0       0       0
  1930 ;;      Locals:         0       0       0       0       0
  1931 ;;      Temps:          2       0       0       0       0
  1932 ;;      Totals:         2       0       0       0       0
  1933 ;;Total ram usage:        2 bytes
  1934 ;; Hardware stack levels used: 1
  1935 ;; Hardware stack levels required when called: 1
  1936 ;; This function calls:
  1937 ;;		_lcd_com
  1938 ;; This function is called by:
  1939 ;;		_main
  1940 ;; This function uses a non-reentrant model
  1941 ;;
  1942                           
  1943     0C6F                     _init:	
  1944                           ;psect for function _init
  1945                           
  1946     0C6F                     l1501:	
  1947                           ;incstack = 0
  1948                           ; Regs used in _init: [wreg+status,2+status,0+btemp+1+pclath+cstack]
  1949                           
  1950                           
  1951                           ;ADC+PWM_TASK.c: 132:     TRISA = 0x05;
  1952     0C6F  3005               	movlw	5
  1953     0C70  1683               	bsf	3,5	;RP0=1, select bank1
  1954     0C71  1303               	bcf	3,6	;RP1=0, select bank1
  1955     0C72  0085               	movwf	5	;volatile
  1956     0C73                     l1503:
  1957                           
  1958                           ;ADC+PWM_TASK.c: 133:     TRISC = 0x00;
  1959     0C73  0187               	clrf	7	;volatile
  1960     0C74                     l1505:
  1961                           
  1962                           ;ADC+PWM_TASK.c: 134:     TRISD = 0x00;
  1963     0C74  0188               	clrf	8	;volatile
  1964                           
  1965                           ;ADC+PWM_TASK.c: 137:     ADCON0 = 0x81;
  1966     0C75  3081               	movlw	129
  1967     0C76  1283               	bcf	3,5	;RP0=0, select bank0
  1968     0C77  1303               	bcf	3,6	;RP1=0, select bank0
  1969     0C78  009F               	movwf	31	;volatile
  1970                           
  1971                           ;ADC+PWM_TASK.c: 138:     ADCON1 = 0x8E;
  1972     0C79  308E               	movlw	142
  1973     0C7A  1683               	bsf	3,5	;RP0=1, select bank1
  1974     0C7B  1303               	bcf	3,6	;RP1=0, select bank1
  1975     0C7C  009F               	movwf	31	;volatile
  1976                           
  1977                           ;ADC+PWM_TASK.c: 141:     CCP1CON = 0x0C;
  1978     0C7D  300C               	movlw	12
  1979     0C7E  1283               	bcf	3,5	;RP0=0, select bank0
  1980     0C7F  1303               	bcf	3,6	;RP1=0, select bank0
  1981     0C80  0097               	movwf	23	;volatile
  1982                           
  1983                           ;ADC+PWM_TASK.c: 142:     T2CON = 0x06;
  1984     0C81  3006               	movlw	6
  1985     0C82  0092               	movwf	18	;volatile
  1986                           
  1987                           ;ADC+PWM_TASK.c: 143:     PR2 = 0x5E;
  1988     0C83  305E               	movlw	94
  1989     0C84  1683               	bsf	3,5	;RP0=1, select bank1
  1990     0C85  1303               	bcf	3,6	;RP1=0, select bank1
  1991     0C86  0092               	movwf	18	;volatile
  1992     0C87                     l1507:
  1993                           
  1994                           ;ADC+PWM_TASK.c: 144:     CCPR1L = 0x00;
  1995     0C87  1283               	bcf	3,5	;RP0=0, select bank0
  1996     0C88  1303               	bcf	3,6	;RP1=0, select bank0
  1997     0C89  0195               	clrf	21	;volatile
  1998     0C8A                     l1509:
  1999                           
  2000                           ;ADC+PWM_TASK.c: 148:     lcd_com(0x30);
  2001     0C8A  3030               	movlw	48
  2002     0C8B  120A  158A  2330  120A  158A  	fcall	_lcd_com
  2003     0C90                     l1511:
  2004                           
  2005                           ;ADC+PWM_TASK.c: 149:     _delay((unsigned long)((100)*(6000000/4000.0)));
  2006     0C90  30C3               	movlw	195
  2007     0C91  00F4               	movwf	??_init+1
  2008     0C92  30CD               	movlw	205
  2009     0C93  00F3               	movwf	??_init
  2010     0C94                     u3257:
  2011     0C94  0BF3               	decfsz	??_init,f
  2012     0C95  2C94               	goto	u3257
  2013     0C96  0BF4               	decfsz	??_init+1,f
  2014     0C97  2C94               	goto	u3257
  2015     0C98                     l1513:
  2016                           
  2017                           ;ADC+PWM_TASK.c: 150:     lcd_com(0x30);
  2018     0C98  3030               	movlw	48
  2019     0C99  120A  158A  2330  120A  158A  	fcall	_lcd_com
  2020     0C9E                     l1515:
  2021                           
  2022                           ;ADC+PWM_TASK.c: 151:     _delay((unsigned long)((100)*(6000000/4000.0)));
  2023     0C9E  30C3               	movlw	195
  2024     0C9F  00F4               	movwf	??_init+1
  2025     0CA0  30CD               	movlw	205
  2026     0CA1  00F3               	movwf	??_init
  2027     0CA2                     u3267:
  2028     0CA2  0BF3               	decfsz	??_init,f
  2029     0CA3  2CA2               	goto	u3267
  2030     0CA4  0BF4               	decfsz	??_init+1,f
  2031     0CA5  2CA2               	goto	u3267
  2032     0CA6                     l1517:
  2033                           
  2034                           ;ADC+PWM_TASK.c: 152:     lcd_com(0x30);
  2035     0CA6  3030               	movlw	48
  2036     0CA7  120A  158A  2330  120A  158A  	fcall	_lcd_com
  2037     0CAC                     l1519:
  2038                           
  2039                           ;ADC+PWM_TASK.c: 153:     _delay((unsigned long)((100)*(6000000/4000.0)));
  2040     0CAC  30C3               	movlw	195
  2041     0CAD  00F4               	movwf	??_init+1
  2042     0CAE  30CD               	movlw	205
  2043     0CAF  00F3               	movwf	??_init
  2044     0CB0                     u3277:
  2045     0CB0  0BF3               	decfsz	??_init,f
  2046     0CB1  2CB0               	goto	u3277
  2047     0CB2  0BF4               	decfsz	??_init+1,f
  2048     0CB3  2CB0               	goto	u3277
  2049     0CB4                     l1521:
  2050                           
  2051                           ;ADC+PWM_TASK.c: 154:     lcd_com(0x38);
  2052     0CB4  3038               	movlw	56
  2053     0CB5  120A  158A  2330  120A  158A  	fcall	_lcd_com
  2054     0CBA                     l1523:
  2055                           
  2056                           ;ADC+PWM_TASK.c: 155:     _delay((unsigned long)((100)*(6000000/4000.0)));
  2057     0CBA  30C3               	movlw	195
  2058     0CBB  00F4               	movwf	??_init+1
  2059     0CBC  30CD               	movlw	205
  2060     0CBD  00F3               	movwf	??_init
  2061     0CBE                     u3287:
  2062     0CBE  0BF3               	decfsz	??_init,f
  2063     0CBF  2CBE               	goto	u3287
  2064     0CC0  0BF4               	decfsz	??_init+1,f
  2065     0CC1  2CBE               	goto	u3287
  2066     0CC2                     l1525:
  2067                           
  2068                           ;ADC+PWM_TASK.c: 156:     lcd_com(0x06);
  2069     0CC2  3006               	movlw	6
  2070     0CC3  120A  158A  2330  120A  158A  	fcall	_lcd_com
  2071     0CC8                     l1527:
  2072                           
  2073                           ;ADC+PWM_TASK.c: 157:     _delay((unsigned long)((100)*(6000000/4000.0)));
  2074     0CC8  30C3               	movlw	195
  2075     0CC9  00F4               	movwf	??_init+1
  2076     0CCA  30CD               	movlw	205
  2077     0CCB  00F3               	movwf	??_init
  2078     0CCC                     u3297:
  2079     0CCC  0BF3               	decfsz	??_init,f
  2080     0CCD  2CCC               	goto	u3297
  2081     0CCE  0BF4               	decfsz	??_init+1,f
  2082     0CCF  2CCC               	goto	u3297
  2083     0CD0                     l1529:
  2084                           
  2085                           ;ADC+PWM_TASK.c: 158:     lcd_com(0x0C);
  2086     0CD0  300C               	movlw	12
  2087     0CD1  120A  158A  2330  120A  158A  	fcall	_lcd_com
  2088     0CD6                     l1531:
  2089                           
  2090                           ;ADC+PWM_TASK.c: 159:     _delay((unsigned long)((100)*(6000000/4000.0)));
  2091     0CD6  30C3               	movlw	195
  2092     0CD7  00F4               	movwf	??_init+1
  2093     0CD8  30CD               	movlw	205
  2094     0CD9  00F3               	movwf	??_init
  2095     0CDA                     u3307:
  2096     0CDA  0BF3               	decfsz	??_init,f
  2097     0CDB  2CDA               	goto	u3307
  2098     0CDC  0BF4               	decfsz	??_init+1,f
  2099     0CDD  2CDA               	goto	u3307
  2100     0CDE                     l1533:
  2101                           
  2102                           ;ADC+PWM_TASK.c: 160:     lcd_com(0x01);
  2103     0CDE  3001               	movlw	1
  2104     0CDF  120A  158A  2330  120A  158A  	fcall	_lcd_com
  2105     0CE4                     l1535:
  2106                           
  2107                           ;ADC+PWM_TASK.c: 161:     _delay((unsigned long)((100)*(6000000/4000.0)));
  2108     0CE4  30C3               	movlw	195
  2109     0CE5  00F4               	movwf	??_init+1
  2110     0CE6  30CD               	movlw	205
  2111     0CE7  00F3               	movwf	??_init
  2112     0CE8                     u3317:
  2113     0CE8  0BF3               	decfsz	??_init,f
  2114     0CE9  2CE8               	goto	u3317
  2115     0CEA  0BF4               	decfsz	??_init+1,f
  2116     0CEB  2CE8               	goto	u3317
  2117     0CEC                     l87:
  2118     0CEC  0008               	return
  2119     0CED                     __end_of_init:
  2120                           
  2121                           	psect	text10
  2122     0B30                     __ptext10:	
  2123 ;; *************** function _lcd_com *****************
  2124 ;; Defined at:
  2125 ;;		line 164 in file "ADC+PWM_TASK.c"
  2126 ;; Parameters:    Size  Location     Type
  2127 ;;  i               1    wreg     unsigned char 
  2128 ;; Auto vars:     Size  Location     Type
  2129 ;;  i               1    2[COMMON] unsigned char 
  2130 ;; Return value:  Size  Location     Type
  2131 ;;                  1    wreg      void 
  2132 ;; Registers used:
  2133 ;;		wreg, status,2, status,0, btemp+1
  2134 ;; Tracked objects:
  2135 ;;		On entry : 0/0
  2136 ;;		On exit  : 0/0
  2137 ;;		Unchanged: 0/0
  2138 ;; Data sizes:     COMMON   BANK0   BANK1   BANK3   BANK2
  2139 ;;      Params:         0       0       0       0       0
  2140 ;;      Locals:         1       0       0       0       0
  2141 ;;      Temps:          2       0       0       0       0
  2142 ;;      Totals:         3       0       0       0       0
  2143 ;;Total ram usage:        3 bytes
  2144 ;; Hardware stack levels used: 1
  2145 ;; This function calls:
  2146 ;;		Nothing
  2147 ;; This function is called by:
  2148 ;;		_main
  2149 ;;		_init
  2150 ;; This function uses a non-reentrant model
  2151 ;;
  2152                           
  2153     0B30                     _lcd_com:	
  2154                           ;psect for function _lcd_com
  2155                           
  2156                           
  2157                           ;incstack = 0
  2158                           ; Regs used in _lcd_com: [wreg+status,2+status,0+btemp+1]
  2159                           ;lcd_com@i stored from wreg
  2160     0B30  00F2               	movwf	lcd_com@i
  2161     0B31                     l1407:
  2162                           
  2163                           ;ADC+PWM_TASK.c: 165:     PORTC &= ~0x08;
  2164     0B31  30F7               	movlw	247
  2165     0B32  00FF               	movwf	btemp+1
  2166     0B33  087F               	movf	btemp+1,w
  2167     0B34  1283               	bcf	3,5	;RP0=0, select bank0
  2168     0B35  1303               	bcf	3,6	;RP1=0, select bank0
  2169     0B36  0587               	andwf	7,f	;volatile
  2170     0B37                     l1409:
  2171                           
  2172                           ;ADC+PWM_TASK.c: 166:     PORTD = i;
  2173     0B37  0872               	movf	lcd_com@i,w
  2174     0B38  0088               	movwf	8	;volatile
  2175     0B39                     l1411:
  2176                           
  2177                           ;ADC+PWM_TASK.c: 167:     PORTC |= 0x01;
  2178     0B39  1407               	bsf	7,0	;volatile
  2179     0B3A                     l1413:
  2180                           
  2181                           ;ADC+PWM_TASK.c: 168:     PORTC &= ~0x01;
  2182     0B3A  30FE               	movlw	254
  2183     0B3B  00FF               	movwf	btemp+1
  2184     0B3C  087F               	movf	btemp+1,w
  2185     0B3D  0587               	andwf	7,f	;volatile
  2186                           
  2187                           ;ADC+PWM_TASK.c: 169:     _delay((unsigned long)((100)*(6000000/4000.0)));
  2188     0B3E  30C3               	movlw	195
  2189     0B3F  00F1               	movwf	??_lcd_com+1
  2190     0B40  30CD               	movlw	205
  2191     0B41  00F0               	movwf	??_lcd_com
  2192     0B42                     u3327:
  2193     0B42  0BF0               	decfsz	??_lcd_com,f
  2194     0B43  2B42               	goto	u3327
  2195     0B44  0BF1               	decfsz	??_lcd_com+1,f
  2196     0B45  2B42               	goto	u3327
  2197     0B46                     l90:
  2198     0B46  0008               	return
  2199     0B47                     __end_of_lcd_com:
  2200                           
  2201                           	psect	text11
  2202     0E11                     __ptext11:	
  2203 ;; *************** function ___xxtofl *****************
  2204 ;; Defined at:
  2205 ;;		line 10 in file "C:\Program Files\Microchip\xc8\v2.46\pic\sources\c99\common\xxtofl.c"
  2206 ;; Parameters:    Size  Location     Type
  2207 ;;  sign            1    wreg     unsigned char 
  2208 ;;  val             4    0[COMMON] long 
  2209 ;; Auto vars:     Size  Location     Type
  2210 ;;  sign            1    8[COMMON] unsigned char 
  2211 ;;  arg             4   10[COMMON] unsigned long 
  2212 ;;  exp             1    9[COMMON] unsigned char 
  2213 ;; Return value:  Size  Location     Type
  2214 ;;                  4    0[COMMON] unsigned char 
  2215 ;; Registers used:
  2216 ;;		wreg, status,2, status,0, btemp+1
  2217 ;; Tracked objects:
  2218 ;;		On entry : 0/0
  2219 ;;		On exit  : 0/0
  2220 ;;		Unchanged: 0/0
  2221 ;; Data sizes:     COMMON   BANK0   BANK1   BANK3   BANK2
  2222 ;;      Params:         4       0       0       0       0
  2223 ;;      Locals:         6       0       0       0       0
  2224 ;;      Temps:          4       0       0       0       0
  2225 ;;      Totals:        14       0       0       0       0
  2226 ;;Total ram usage:       14 bytes
  2227 ;; Hardware stack levels used: 1
  2228 ;; This function calls:
  2229 ;;		Nothing
  2230 ;; This function is called by:
  2231 ;;		_main
  2232 ;; This function uses a non-reentrant model
  2233 ;;
  2234                           
  2235     0E11                     ___xxtofl:	
  2236                           ;psect for function ___xxtofl
  2237                           
  2238                           
  2239                           ;incstack = 0
  2240                           ; Regs used in ___xxtofl: [wreg+status,2+status,0+btemp+1]
  2241                           ;___xxtofl@sign stored from wreg
  2242     0E11  00F8               	movwf	___xxtofl@sign
  2243     0E12                     l2083:
  2244     0E12  0878               	movf	___xxtofl@sign,w
  2245     0E13  1903               	btfsc	3,2
  2246     0E14  2E16               	goto	u3071
  2247     0E15  2E17               	goto	u3070
  2248     0E16                     u3071:
  2249     0E16  2E2B               	goto	l2089
  2250     0E17                     u3070:
  2251     0E17                     l2085:
  2252     0E17  1FF3               	btfss	___xxtofl@val+3,7
  2253     0E18  2E1A               	goto	u3081
  2254     0E19  2E1B               	goto	u3080
  2255     0E1A                     u3081:
  2256     0E1A  2E2B               	goto	l2089
  2257     0E1B                     u3080:
  2258     0E1B                     l2087:
  2259     0E1B  0970               	comf	___xxtofl@val,w
  2260     0E1C  00FA               	movwf	___xxtofl@arg
  2261     0E1D  0971               	comf	___xxtofl@val+1,w
  2262     0E1E  00FB               	movwf	___xxtofl@arg+1
  2263     0E1F  0972               	comf	___xxtofl@val+2,w
  2264     0E20  00FC               	movwf	___xxtofl@arg+2
  2265     0E21  0973               	comf	___xxtofl@val+3,w
  2266     0E22  00FD               	movwf	___xxtofl@arg+3
  2267     0E23  0AFA               	incf	___xxtofl@arg,f
  2268     0E24  1903               	skipnz
  2269     0E25  0AFB               	incf	___xxtofl@arg+1,f
  2270     0E26  1903               	skipnz
  2271     0E27  0AFC               	incf	___xxtofl@arg+2,f
  2272     0E28  1903               	skipnz
  2273     0E29  0AFD               	incf	___xxtofl@arg+3,f
  2274     0E2A  2E33               	goto	l620
  2275     0E2B                     l2089:
  2276     0E2B  0873               	movf	___xxtofl@val+3,w
  2277     0E2C  00FD               	movwf	___xxtofl@arg+3
  2278     0E2D  0872               	movf	___xxtofl@val+2,w
  2279     0E2E  00FC               	movwf	___xxtofl@arg+2
  2280     0E2F  0871               	movf	___xxtofl@val+1,w
  2281     0E30  00FB               	movwf	___xxtofl@arg+1
  2282     0E31  0870               	movf	___xxtofl@val,w
  2283     0E32  00FA               	movwf	___xxtofl@arg
  2284     0E33                     l620:
  2285     0E33  0873               	movf	___xxtofl@val+3,w
  2286     0E34  0472               	iorwf	___xxtofl@val+2,w
  2287     0E35  0471               	iorwf	___xxtofl@val+1,w
  2288     0E36  0470               	iorwf	___xxtofl@val,w
  2289     0E37  1D03               	skipz
  2290     0E38  2E3A               	goto	u3091
  2291     0E39  2E3B               	goto	u3090
  2292     0E3A                     u3091:
  2293     0E3A  2E44               	goto	l2095
  2294     0E3B                     u3090:
  2295     0E3B                     l2091:
  2296     0E3B  3000               	movlw	0
  2297     0E3C  00F3               	movwf	?___xxtofl+3
  2298     0E3D  3000               	movlw	0
  2299     0E3E  00F2               	movwf	?___xxtofl+2
  2300     0E3F  3000               	movlw	0
  2301     0E40  00F1               	movwf	?___xxtofl+1
  2302     0E41  3000               	movlw	0
  2303     0E42  00F0               	movwf	?___xxtofl
  2304     0E43  2EC8               	goto	l622
  2305     0E44                     l2095:
  2306     0E44  3096               	movlw	150
  2307     0E45  00F9               	movwf	___xxtofl@exp
  2308     0E46  2E54               	goto	l2101
  2309     0E47                     l2097:
  2310     0E47  3001               	movlw	1
  2311     0E48  00FF               	movwf	btemp+1
  2312     0E49  087F               	movf	btemp+1,w
  2313     0E4A  07F9               	addwf	___xxtofl@exp,f
  2314     0E4B                     l2099:
  2315     0E4B  3001               	movlw	1
  2316     0E4C                     u3105:
  2317     0E4C  1003               	clrc
  2318     0E4D  0CFD               	rrf	___xxtofl@arg+3,f
  2319     0E4E  0CFC               	rrf	___xxtofl@arg+2,f
  2320     0E4F  0CFB               	rrf	___xxtofl@arg+1,f
  2321     0E50  0CFA               	rrf	___xxtofl@arg,f
  2322     0E51  3EFF               	addlw	-1
  2323     0E52  1D03               	skipz
  2324     0E53  2E4C               	goto	u3105
  2325     0E54                     l2101:
  2326     0E54  30FE               	movlw	254
  2327     0E55  057D               	andwf	___xxtofl@arg+3,w
  2328     0E56  1D03               	btfss	3,2
  2329     0E57  2E59               	goto	u3111
  2330     0E58  2E5A               	goto	u3110
  2331     0E59                     u3111:
  2332     0E59  2E47               	goto	l2097
  2333     0E5A                     u3110:
  2334     0E5A  2E76               	goto	l2109
  2335     0E5B                     l2103:
  2336     0E5B  3001               	movlw	1
  2337     0E5C  00FF               	movwf	btemp+1
  2338     0E5D  087F               	movf	btemp+1,w
  2339     0E5E  07F9               	addwf	___xxtofl@exp,f
  2340     0E5F                     l2105:
  2341     0E5F  3001               	movlw	1
  2342     0E60  07FA               	addwf	___xxtofl@arg,f
  2343     0E61  3000               	movlw	0
  2344     0E62  1803               	skipnc
  2345     0E63  3001               	movlw	1
  2346     0E64  07FB               	addwf	___xxtofl@arg+1,f
  2347     0E65  3000               	movlw	0
  2348     0E66  1803               	skipnc
  2349     0E67  3001               	movlw	1
  2350     0E68  07FC               	addwf	___xxtofl@arg+2,f
  2351     0E69  3000               	movlw	0
  2352     0E6A  1803               	skipnc
  2353     0E6B  3001               	movlw	1
  2354     0E6C  07FD               	addwf	___xxtofl@arg+3,f
  2355     0E6D                     l2107:
  2356     0E6D  3001               	movlw	1
  2357     0E6E                     u3125:
  2358     0E6E  1003               	clrc
  2359     0E6F  0CFD               	rrf	___xxtofl@arg+3,f
  2360     0E70  0CFC               	rrf	___xxtofl@arg+2,f
  2361     0E71  0CFB               	rrf	___xxtofl@arg+1,f
  2362     0E72  0CFA               	rrf	___xxtofl@arg,f
  2363     0E73  3EFF               	addlw	-1
  2364     0E74  1D03               	skipz
  2365     0E75  2E6E               	goto	u3125
  2366     0E76                     l2109:
  2367     0E76  30FF               	movlw	255
  2368     0E77  057D               	andwf	___xxtofl@arg+3,w
  2369     0E78  1D03               	btfss	3,2
  2370     0E79  2E7B               	goto	u3131
  2371     0E7A  2E7C               	goto	u3130
  2372     0E7B                     u3131:
  2373     0E7B  2E5B               	goto	l2103
  2374     0E7C                     u3130:
  2375     0E7C  2E88               	goto	l2113
  2376     0E7D                     l2111:
  2377     0E7D  3001               	movlw	1
  2378     0E7E  02F9               	subwf	___xxtofl@exp,f
  2379     0E7F  3001               	movlw	1
  2380     0E80  00F4               	movwf	??___xxtofl
  2381     0E81                     u3145:
  2382     0E81  1003               	clrc
  2383     0E82  0DFA               	rlf	___xxtofl@arg,f
  2384     0E83  0DFB               	rlf	___xxtofl@arg+1,f
  2385     0E84  0DFC               	rlf	___xxtofl@arg+2,f
  2386     0E85  0DFD               	rlf	___xxtofl@arg+3,f
  2387     0E86  0BF4               	decfsz	??___xxtofl,f
  2388     0E87  2E81               	goto	u3145
  2389     0E88                     l2113:
  2390     0E88  1BFC               	btfsc	___xxtofl@arg+2,7
  2391     0E89  2E8B               	goto	u3151
  2392     0E8A  2E8C               	goto	u3150
  2393     0E8B                     u3151:
  2394     0E8B  2E92               	goto	l633
  2395     0E8C                     u3150:
  2396     0E8C                     l2115:
  2397     0E8C  3002               	movlw	2
  2398     0E8D  0279               	subwf	___xxtofl@exp,w
  2399     0E8E  1803               	skipnc
  2400     0E8F  2E91               	goto	u3161
  2401     0E90  2E92               	goto	u3160
  2402     0E91                     u3161:
  2403     0E91  2E7D               	goto	l2111
  2404     0E92                     u3160:
  2405     0E92                     l633:
  2406     0E92  1879               	btfsc	___xxtofl@exp,0
  2407     0E93  2E95               	goto	u3171
  2408     0E94  2E96               	goto	u3170
  2409     0E95                     u3171:
  2410     0E95  2E9E               	goto	l634
  2411     0E96                     u3170:
  2412     0E96                     l2117:
  2413     0E96  30FF               	movlw	255
  2414     0E97  05FA               	andwf	___xxtofl@arg,f
  2415     0E98  30FF               	movlw	255
  2416     0E99  05FB               	andwf	___xxtofl@arg+1,f
  2417     0E9A  307F               	movlw	127
  2418     0E9B  05FC               	andwf	___xxtofl@arg+2,f
  2419     0E9C  30FF               	movlw	255
  2420     0E9D  05FD               	andwf	___xxtofl@arg+3,f
  2421     0E9E                     l634:
  2422     0E9E  1003               	clrc
  2423     0E9F  0CF9               	rrf	___xxtofl@exp,f
  2424     0EA0                     l2119:
  2425     0EA0  0879               	movf	___xxtofl@exp,w
  2426     0EA1  00F4               	movwf	??___xxtofl
  2427     0EA2  01F5               	clrf	??___xxtofl+1
  2428     0EA3  01F6               	clrf	??___xxtofl+2
  2429     0EA4  01F7               	clrf	??___xxtofl+3
  2430     0EA5  3018               	movlw	24
  2431     0EA6                     u3185:
  2432     0EA6  1003               	clrc
  2433     0EA7  0DF4               	rlf	??___xxtofl,f
  2434     0EA8  0DF5               	rlf	??___xxtofl+1,f
  2435     0EA9  0DF6               	rlf	??___xxtofl+2,f
  2436     0EAA  0DF7               	rlf	??___xxtofl+3,f
  2437     0EAB                     u3180:
  2438     0EAB  3EFF               	addlw	-1
  2439     0EAC  1D03               	skipz
  2440     0EAD  2EA6               	goto	u3185
  2441     0EAE  0874               	movf	??___xxtofl,w
  2442     0EAF  04FA               	iorwf	___xxtofl@arg,f
  2443     0EB0  0875               	movf	??___xxtofl+1,w
  2444     0EB1  04FB               	iorwf	___xxtofl@arg+1,f
  2445     0EB2  0876               	movf	??___xxtofl+2,w
  2446     0EB3  04FC               	iorwf	___xxtofl@arg+2,f
  2447     0EB4  0877               	movf	??___xxtofl+3,w
  2448     0EB5  04FD               	iorwf	___xxtofl@arg+3,f
  2449     0EB6                     l2121:
  2450     0EB6  0878               	movf	___xxtofl@sign,w
  2451     0EB7  1903               	btfsc	3,2
  2452     0EB8  2EBA               	goto	u3191
  2453     0EB9  2EBB               	goto	u3190
  2454     0EBA                     u3191:
  2455     0EBA  2EC0               	goto	l2127
  2456     0EBB                     u3190:
  2457     0EBB                     l2123:
  2458     0EBB  1FF3               	btfss	___xxtofl@val+3,7
  2459     0EBC  2EBE               	goto	u3201
  2460     0EBD  2EBF               	goto	u3200
  2461     0EBE                     u3201:
  2462     0EBE  2EC0               	goto	l2127
  2463     0EBF                     u3200:
  2464     0EBF                     l2125:
  2465     0EBF  17FD               	bsf	___xxtofl@arg+3,7
  2466     0EC0                     l2127:
  2467     0EC0  087D               	movf	___xxtofl@arg+3,w
  2468     0EC1  00F3               	movwf	?___xxtofl+3
  2469     0EC2  087C               	movf	___xxtofl@arg+2,w
  2470     0EC3  00F2               	movwf	?___xxtofl+2
  2471     0EC4  087B               	movf	___xxtofl@arg+1,w
  2472     0EC5  00F1               	movwf	?___xxtofl+1
  2473     0EC6  087A               	movf	___xxtofl@arg,w
  2474     0EC7  00F0               	movwf	?___xxtofl
  2475     0EC8                     l622:
  2476     0EC8  0008               	return
  2477     0EC9                     __end_of___xxtofl:
  2478                           
  2479                           	psect	text12
  2480     0CED                     __ptext12:	
  2481 ;; *************** function ___fltol *****************
  2482 ;; Defined at:
  2483 ;;		line 43 in file "C:\Program Files\Microchip\xc8\v2.46\pic\sources\c99\common\fltol.c"
  2484 ;; Parameters:    Size  Location     Type
  2485 ;;  f1              4   72[BANK0 ] unsigned char 
  2486 ;; Auto vars:     Size  Location     Type
  2487 ;;  exp1            1    1[BANK1 ] unsigned char 
  2488 ;;  sign1           1    0[BANK1 ] unsigned char 
  2489 ;; Return value:  Size  Location     Type
  2490 ;;                  4   72[BANK0 ] long 
  2491 ;; Registers used:
  2492 ;;		wreg, status,2, status,0, btemp+1
  2493 ;; Tracked objects:
  2494 ;;		On entry : 0/0
  2495 ;;		On exit  : 0/0
  2496 ;;		Unchanged: 0/0
  2497 ;; Data sizes:     COMMON   BANK0   BANK1   BANK3   BANK2
  2498 ;;      Params:         0       4       0       0       0
  2499 ;;      Locals:         0       0       2       0       0
  2500 ;;      Temps:          0       4       0       0       0
  2501 ;;      Totals:         0       8       2       0       0
  2502 ;;Total ram usage:       10 bytes
  2503 ;; Hardware stack levels used: 1
  2504 ;; This function calls:
  2505 ;;		Nothing
  2506 ;; This function is called by:
  2507 ;;		_main
  2508 ;; This function uses a non-reentrant model
  2509 ;;
  2510                           
  2511     0CED                     ___fltol:	
  2512                           ;psect for function ___fltol
  2513                           
  2514     0CED                     l1557:	
  2515                           ;incstack = 0
  2516                           ; Regs used in ___fltol: [wreg+status,2+status,0+btemp+1]
  2517                           
  2518     0CED  1003               	clrc
  2519     0CEE  1283               	bcf	3,5	;RP0=0, select bank0
  2520     0CEF  1303               	bcf	3,6	;RP1=0, select bank0
  2521     0CF0  0D6A               	rlf	___fltol@f1+2,w
  2522     0CF1  0D6B               	rlf	___fltol@f1+3,w
  2523     0CF2  1683               	bsf	3,5	;RP0=1, select bank1
  2524     0CF3  1303               	bcf	3,6	;RP1=0, select bank1
  2525     0CF4  00BD               	movwf	___fltol@exp1^(0+128)
  2526     0CF5  083D               	movf	___fltol@exp1^(0+128),w
  2527     0CF6  1D03               	btfss	3,2
  2528     0CF7  2CF9               	goto	u1851
  2529     0CF8  2CFA               	goto	u1850
  2530     0CF9                     u1851:
  2531     0CF9  2D05               	goto	l1563
  2532     0CFA                     u1850:
  2533     0CFA                     l1559:
  2534     0CFA  3000               	movlw	0
  2535     0CFB  1283               	bcf	3,5	;RP0=0, select bank0
  2536     0CFC  1303               	bcf	3,6	;RP1=0, select bank0
  2537     0CFD  00EB               	movwf	?___fltol+3
  2538     0CFE  3000               	movlw	0
  2539     0CFF  00EA               	movwf	?___fltol+2
  2540     0D00  3000               	movlw	0
  2541     0D01  00E9               	movwf	?___fltol+1
  2542     0D02  3000               	movlw	0
  2543     0D03  00E8               	movwf	?___fltol
  2544     0D04  2D7A               	goto	l373
  2545     0D05                     l1563:
  2546     0D05  1283               	bcf	3,5	;RP0=0, select bank0
  2547     0D06  1303               	bcf	3,6	;RP1=0, select bank0
  2548     0D07  0868               	movf	___fltol@f1,w
  2549     0D08  00EC               	movwf	??___fltol
  2550     0D09  0869               	movf	___fltol@f1+1,w
  2551     0D0A  00ED               	movwf	??___fltol+1
  2552     0D0B  086A               	movf	___fltol@f1+2,w
  2553     0D0C  00EE               	movwf	??___fltol+2
  2554     0D0D  086B               	movf	___fltol@f1+3,w
  2555     0D0E  00EF               	movwf	??___fltol+3
  2556     0D0F  301F               	movlw	31
  2557     0D10                     u1865:
  2558     0D10  1003               	clrc
  2559     0D11  0CEF               	rrf	??___fltol+3,f
  2560     0D12  0CEE               	rrf	??___fltol+2,f
  2561     0D13  0CED               	rrf	??___fltol+1,f
  2562     0D14  0CEC               	rrf	??___fltol,f
  2563     0D15                     u1860:
  2564     0D15  3EFF               	addlw	-1
  2565     0D16  1D03               	skipz
  2566     0D17  2D10               	goto	u1865
  2567     0D18  086C               	movf	??___fltol,w
  2568     0D19  1683               	bsf	3,5	;RP0=1, select bank1
  2569     0D1A  1303               	bcf	3,6	;RP1=0, select bank1
  2570     0D1B  00BC               	movwf	___fltol@sign1^(0+128)
  2571     0D1C                     l1565:
  2572     0D1C  1283               	bcf	3,5	;RP0=0, select bank0
  2573     0D1D  1303               	bcf	3,6	;RP1=0, select bank0
  2574     0D1E  17EA               	bsf	___fltol@f1+2,7
  2575     0D1F                     l1567:
  2576     0D1F  30FF               	movlw	255
  2577     0D20  05E8               	andwf	___fltol@f1,f
  2578     0D21  30FF               	movlw	255
  2579     0D22  05E9               	andwf	___fltol@f1+1,f
  2580     0D23  30FF               	movlw	255
  2581     0D24  05EA               	andwf	___fltol@f1+2,f
  2582     0D25  3000               	movlw	0
  2583     0D26  05EB               	andwf	___fltol@f1+3,f
  2584     0D27                     l1569:
  2585     0D27  3096               	movlw	150
  2586     0D28  1683               	bsf	3,5	;RP0=1, select bank1
  2587     0D29  1303               	bcf	3,6	;RP1=0, select bank1
  2588     0D2A  02BD               	subwf	___fltol@exp1^(0+128),f
  2589     0D2B                     l1571:
  2590     0D2B  1FBD               	btfss	___fltol@exp1^(0+128),7
  2591     0D2C  2D2E               	goto	u1871
  2592     0D2D  2D2F               	goto	u1870
  2593     0D2E                     u1871:
  2594     0D2E  2D4D               	goto	l1583
  2595     0D2F                     u1870:
  2596     0D2F                     l1573:
  2597     0D2F  083D               	movf	___fltol@exp1^(0+128),w
  2598     0D30  3A80               	xorlw	128
  2599     0D31  3E97               	addlw	151
  2600     0D32  1803               	skipnc
  2601     0D33  2D35               	goto	u1881
  2602     0D34  2D36               	goto	u1880
  2603     0D35                     u1881:
  2604     0D35  2D37               	goto	l1579
  2605     0D36                     u1880:
  2606     0D36  2CFA               	goto	l1559
  2607     0D37                     l1579:
  2608     0D37  3001               	movlw	1
  2609     0D38                     u1895:
  2610     0D38  1003               	clrc
  2611     0D39  1283               	bcf	3,5	;RP0=0, select bank0
  2612     0D3A  1303               	bcf	3,6	;RP1=0, select bank0
  2613     0D3B  0CEB               	rrf	___fltol@f1+3,f
  2614     0D3C  0CEA               	rrf	___fltol@f1+2,f
  2615     0D3D  0CE9               	rrf	___fltol@f1+1,f
  2616     0D3E  0CE8               	rrf	___fltol@f1,f
  2617     0D3F  3EFF               	addlw	-1
  2618     0D40  1D03               	skipz
  2619     0D41  2D38               	goto	u1895
  2620     0D42                     l1581:
  2621     0D42  3001               	movlw	1
  2622     0D43  00FF               	movwf	btemp+1
  2623     0D44  087F               	movf	btemp+1,w
  2624     0D45  1683               	bsf	3,5	;RP0=1, select bank1
  2625     0D46  1303               	bcf	3,6	;RP1=0, select bank1
  2626     0D47  07BD               	addwf	___fltol@exp1^(0+128),f
  2627     0D48  1D03               	btfss	3,2
  2628     0D49  2D4B               	goto	u1901
  2629     0D4A  2D4C               	goto	u1900
  2630     0D4B                     u1901:
  2631     0D4B  2D37               	goto	l1579
  2632     0D4C                     u1900:
  2633     0D4C  2D68               	goto	l1591
  2634     0D4D                     l1583:
  2635     0D4D  3020               	movlw	32
  2636     0D4E  023D               	subwf	___fltol@exp1^(0+128),w
  2637     0D4F  1C03               	skipc
  2638     0D50  2D52               	goto	u1911
  2639     0D51  2D53               	goto	u1910
  2640     0D52                     u1911:
  2641     0D52  2D63               	goto	l380
  2642     0D53                     u1910:
  2643     0D53  2CFA               	goto	l1559
  2644     0D54                     l1589:
  2645     0D54  3001               	movlw	1
  2646     0D55  1283               	bcf	3,5	;RP0=0, select bank0
  2647     0D56  1303               	bcf	3,6	;RP1=0, select bank0
  2648     0D57  00EC               	movwf	??___fltol
  2649     0D58                     u1925:
  2650     0D58  1003               	clrc
  2651     0D59  0DE8               	rlf	___fltol@f1,f
  2652     0D5A  0DE9               	rlf	___fltol@f1+1,f
  2653     0D5B  0DEA               	rlf	___fltol@f1+2,f
  2654     0D5C  0DEB               	rlf	___fltol@f1+3,f
  2655     0D5D  0BEC               	decfsz	??___fltol,f
  2656     0D5E  2D58               	goto	u1925
  2657     0D5F  3001               	movlw	1
  2658     0D60  1683               	bsf	3,5	;RP0=1, select bank1
  2659     0D61  1303               	bcf	3,6	;RP1=0, select bank1
  2660     0D62  02BD               	subwf	___fltol@exp1^(0+128),f
  2661     0D63                     l380:
  2662     0D63  083D               	movf	___fltol@exp1^(0+128),w
  2663     0D64  1D03               	btfss	3,2
  2664     0D65  2D67               	goto	u1931
  2665     0D66  2D68               	goto	u1930
  2666     0D67                     u1931:
  2667     0D67  2D54               	goto	l1589
  2668     0D68                     u1930:
  2669     0D68                     l1591:
  2670     0D68  083C               	movf	___fltol@sign1^(0+128),w
  2671     0D69  1903               	btfsc	3,2
  2672     0D6A  2D6C               	goto	u1941
  2673     0D6B  2D6D               	goto	u1940
  2674     0D6C                     u1941:
  2675     0D6C  2D7A               	goto	l383
  2676     0D6D                     u1940:
  2677     0D6D                     l1593:
  2678     0D6D  1283               	bcf	3,5	;RP0=0, select bank0
  2679     0D6E  1303               	bcf	3,6	;RP1=0, select bank0
  2680     0D6F  09E8               	comf	___fltol@f1,f
  2681     0D70  09E9               	comf	___fltol@f1+1,f
  2682     0D71  09EA               	comf	___fltol@f1+2,f
  2683     0D72  09EB               	comf	___fltol@f1+3,f
  2684     0D73  0AE8               	incf	___fltol@f1,f
  2685     0D74  1903               	skipnz
  2686     0D75  0AE9               	incf	___fltol@f1+1,f
  2687     0D76  1903               	skipnz
  2688     0D77  0AEA               	incf	___fltol@f1+2,f
  2689     0D78  1903               	skipnz
  2690     0D79  0AEB               	incf	___fltol@f1+3,f
  2691     0D7A                     l383:
  2692     0D7A                     l373:
  2693     0D7A  0008               	return
  2694     0D7B                     __end_of___fltol:
  2695                           
  2696                           	psect	text13
  2697     049F                     __ptext13:	
  2698 ;; *************** function ___flmul *****************
  2699 ;; Defined at:
  2700 ;;		line 8 in file "C:\Program Files\Microchip\xc8\v2.46\pic\sources\c99\common\sprcmul.c"
  2701 ;; Parameters:    Size  Location     Type
  2702 ;;  b               4    0[BANK0 ] long 
  2703 ;;  a               4    4[BANK0 ] long 
  2704 ;; Auto vars:     Size  Location     Type
  2705 ;;  prod            4   20[BANK0 ] struct .
  2706 ;;  grs             4   14[BANK0 ] unsigned long 
  2707 ;;  temp            2   24[BANK0 ] struct .
  2708 ;;  bexp            1   19[BANK0 ] unsigned char 
  2709 ;;  aexp            1   18[BANK0 ] unsigned char 
  2710 ;;  sign            1   13[BANK0 ] unsigned char 
  2711 ;; Return value:  Size  Location     Type
  2712 ;;                  4    0[BANK0 ] unsigned char 
  2713 ;; Registers used:
  2714 ;;		wreg, status,2, status,0, btemp+1, pclath, cstack
  2715 ;; Tracked objects:
  2716 ;;		On entry : 0/0
  2717 ;;		On exit  : 0/0
  2718 ;;		Unchanged: 0/0
  2719 ;; Data sizes:     COMMON   BANK0   BANK1   BANK3   BANK2
  2720 ;;      Params:         0       8       0       0       0
  2721 ;;      Locals:         0      13       0       0       0
  2722 ;;      Temps:          0       5       0       0       0
  2723 ;;      Totals:         0      26       0       0       0
  2724 ;;Total ram usage:       26 bytes
  2725 ;; Hardware stack levels used: 1
  2726 ;; Hardware stack levels required when called: 1
  2727 ;; This function calls:
  2728 ;;		__Umul8_16
  2729 ;; This function is called by:
  2730 ;;		_main
  2731 ;; This function uses a non-reentrant model
  2732 ;;
  2733                           
  2734     049F                     ___flmul:	
  2735                           ;psect for function ___flmul
  2736                           
  2737     049F                     l1941:	
  2738                           ;incstack = 0
  2739                           ; Regs used in ___flmul: [wreg+status,2+status,0+btemp+1+pclath+cstack]
  2740                           
  2741     049F  1283               	bcf	3,5	;RP0=0, select bank0
  2742     04A0  1303               	bcf	3,6	;RP1=0, select bank0
  2743     04A1  0823               	movf	___flmul@b+3,w
  2744     04A2  3980               	andlw	128
  2745     04A3  00AD               	movwf	___flmul@sign
  2746     04A4                     l1943:
  2747     04A4  0823               	movf	___flmul@b+3,w
  2748     04A5  00A8               	movwf	??___flmul
  2749     04A6  0728               	addwf	??___flmul,w
  2750     04A7  00B3               	movwf	___flmul@bexp
  2751     04A8                     l1945:
  2752     04A8  1FA2               	btfss	___flmul@b+2,7
  2753     04A9  2CAB               	goto	u2701
  2754     04AA  2CAC               	goto	u2700
  2755     04AB                     u2701:
  2756     04AB  2CAD               	goto	l1949
  2757     04AC                     u2700:
  2758     04AC                     l1947:
  2759     04AC  1433               	bsf	___flmul@bexp,0
  2760     04AD                     l1949:
  2761     04AD  0833               	movf	___flmul@bexp,w
  2762     04AE  1903               	btfsc	3,2
  2763     04AF  2CB1               	goto	u2711
  2764     04B0  2CB2               	goto	u2710
  2765     04B1                     u2711:
  2766     04B1  2CC1               	goto	l1957
  2767     04B2                     u2710:
  2768     04B2                     l1951:
  2769     04B2  0A33               	incf	___flmul@bexp,w
  2770     04B3  1D03               	btfss	3,2
  2771     04B4  2CB6               	goto	u2721
  2772     04B5  2CB7               	goto	u2720
  2773     04B6                     u2721:
  2774     04B6  2CBF               	goto	l1955
  2775     04B7                     u2720:
  2776     04B7                     l1953:
  2777     04B7  3000               	movlw	0
  2778     04B8  00A3               	movwf	___flmul@b+3
  2779     04B9  3000               	movlw	0
  2780     04BA  00A2               	movwf	___flmul@b+2
  2781     04BB  3000               	movlw	0
  2782     04BC  00A1               	movwf	___flmul@b+1
  2783     04BD  3000               	movlw	0
  2784     04BE  00A0               	movwf	___flmul@b
  2785     04BF                     l1955:
  2786     04BF  17A2               	bsf	___flmul@b+2,7
  2787     04C0  2CC9               	goto	l1959
  2788     04C1                     l1957:
  2789     04C1  3000               	movlw	0
  2790     04C2  00A3               	movwf	___flmul@b+3
  2791     04C3  3000               	movlw	0
  2792     04C4  00A2               	movwf	___flmul@b+2
  2793     04C5  3000               	movlw	0
  2794     04C6  00A1               	movwf	___flmul@b+1
  2795     04C7  3000               	movlw	0
  2796     04C8  00A0               	movwf	___flmul@b
  2797     04C9                     l1959:
  2798     04C9  0827               	movf	___flmul@a+3,w
  2799     04CA  3980               	andlw	128
  2800     04CB  00FF               	movwf	btemp+1
  2801     04CC  087F               	movf	btemp+1,w
  2802     04CD  06AD               	xorwf	___flmul@sign,f
  2803     04CE                     l1961:
  2804     04CE  0827               	movf	___flmul@a+3,w
  2805     04CF  00A8               	movwf	??___flmul
  2806     04D0  0728               	addwf	??___flmul,w
  2807     04D1  00B2               	movwf	___flmul@aexp
  2808     04D2                     l1963:
  2809     04D2  1FA6               	btfss	___flmul@a+2,7
  2810     04D3  2CD5               	goto	u2731
  2811     04D4  2CD6               	goto	u2730
  2812     04D5                     u2731:
  2813     04D5  2CD7               	goto	l1967
  2814     04D6                     u2730:
  2815     04D6                     l1965:
  2816     04D6  1432               	bsf	___flmul@aexp,0
  2817     04D7                     l1967:
  2818     04D7  0832               	movf	___flmul@aexp,w
  2819     04D8  1903               	btfsc	3,2
  2820     04D9  2CDB               	goto	u2741
  2821     04DA  2CDC               	goto	u2740
  2822     04DB                     u2741:
  2823     04DB  2CEB               	goto	l1975
  2824     04DC                     u2740:
  2825     04DC                     l1969:
  2826     04DC  0A32               	incf	___flmul@aexp,w
  2827     04DD  1D03               	btfss	3,2
  2828     04DE  2CE0               	goto	u2751
  2829     04DF  2CE1               	goto	u2750
  2830     04E0                     u2751:
  2831     04E0  2CE9               	goto	l1973
  2832     04E1                     u2750:
  2833     04E1                     l1971:
  2834     04E1  3000               	movlw	0
  2835     04E2  00A7               	movwf	___flmul@a+3
  2836     04E3  3000               	movlw	0
  2837     04E4  00A6               	movwf	___flmul@a+2
  2838     04E5  3000               	movlw	0
  2839     04E6  00A5               	movwf	___flmul@a+1
  2840     04E7  3000               	movlw	0
  2841     04E8  00A4               	movwf	___flmul@a
  2842     04E9                     l1973:
  2843     04E9  17A6               	bsf	___flmul@a+2,7
  2844     04EA  2CF3               	goto	l1977
  2845     04EB                     l1975:
  2846     04EB  3000               	movlw	0
  2847     04EC  00A7               	movwf	___flmul@a+3
  2848     04ED  3000               	movlw	0
  2849     04EE  00A6               	movwf	___flmul@a+2
  2850     04EF  3000               	movlw	0
  2851     04F0  00A5               	movwf	___flmul@a+1
  2852     04F1  3000               	movlw	0
  2853     04F2  00A4               	movwf	___flmul@a
  2854     04F3                     l1977:
  2855     04F3  0832               	movf	___flmul@aexp,w
  2856     04F4  1903               	btfsc	3,2
  2857     04F5  2CF7               	goto	u2761
  2858     04F6  2CF8               	goto	u2760
  2859     04F7                     u2761:
  2860     04F7  2CFD               	goto	l1981
  2861     04F8                     u2760:
  2862     04F8                     l1979:
  2863     04F8  0833               	movf	___flmul@bexp,w
  2864     04F9  1D03               	btfss	3,2
  2865     04FA  2CFC               	goto	u2771
  2866     04FB  2CFD               	goto	u2770
  2867     04FC                     u2771:
  2868     04FC  2D06               	goto	l1985
  2869     04FD                     u2770:
  2870     04FD                     l1981:
  2871     04FD  3000               	movlw	0
  2872     04FE  00A3               	movwf	?___flmul+3
  2873     04FF  3000               	movlw	0
  2874     0500  00A2               	movwf	?___flmul+2
  2875     0501  3000               	movlw	0
  2876     0502  00A1               	movwf	?___flmul+1
  2877     0503  3000               	movlw	0
  2878     0504  00A0               	movwf	?___flmul
  2879     0505  2FE3               	goto	l576
  2880     0506                     l1985:
  2881     0506  0820               	movf	___flmul@b,w
  2882     0507  00F0               	movwf	__Umul8_16@multiplicand
  2883     0508  0826               	movf	___flmul@a+2,w
  2884     0509  120A  158A  236C  120A  118A  	fcall	__Umul8_16
  2885     050E  0871               	movf	?__Umul8_16+1,w
  2886     050F  1283               	bcf	3,5	;RP0=0, select bank0
  2887     0510  1303               	bcf	3,6	;RP1=0, select bank0
  2888     0511  00B9               	movwf	___flmul@temp+1
  2889     0512  0870               	movf	?__Umul8_16,w
  2890     0513  00B8               	movwf	___flmul@temp
  2891     0514                     l1987:
  2892     0514  0838               	movf	___flmul@temp,w
  2893     0515  00A8               	movwf	??___flmul
  2894     0516  01A9               	clrf	??___flmul+1
  2895     0517  01AA               	clrf	??___flmul+2
  2896     0518  01AB               	clrf	??___flmul+3
  2897     0519  082B               	movf	??___flmul+3,w
  2898     051A  00B1               	movwf	___flmul@grs+3
  2899     051B  082A               	movf	??___flmul+2,w
  2900     051C  00B0               	movwf	___flmul@grs+2
  2901     051D  0829               	movf	??___flmul+1,w
  2902     051E  00AF               	movwf	___flmul@grs+1
  2903     051F  0828               	movf	??___flmul,w
  2904     0520  00AE               	movwf	___flmul@grs
  2905     0521                     l1989:
  2906     0521  0839               	movf	___flmul@temp+1,w
  2907     0522  00A8               	movwf	??___flmul
  2908     0523  01A9               	clrf	??___flmul+1
  2909     0524  01AA               	clrf	??___flmul+2
  2910     0525  01AB               	clrf	??___flmul+3
  2911     0526  082B               	movf	??___flmul+3,w
  2912     0527  00B7               	movwf	___flmul@prod+3
  2913     0528  082A               	movf	??___flmul+2,w
  2914     0529  00B6               	movwf	___flmul@prod+2
  2915     052A  0829               	movf	??___flmul+1,w
  2916     052B  00B5               	movwf	___flmul@prod+1
  2917     052C  0828               	movf	??___flmul,w
  2918     052D  00B4               	movwf	___flmul@prod
  2919     052E  0821               	movf	___flmul@b+1,w
  2920     052F  00F0               	movwf	__Umul8_16@multiplicand
  2921     0530  0825               	movf	___flmul@a+1,w
  2922     0531  120A  158A  236C  120A  118A  	fcall	__Umul8_16
  2923     0536  0871               	movf	?__Umul8_16+1,w
  2924     0537  1283               	bcf	3,5	;RP0=0, select bank0
  2925     0538  1303               	bcf	3,6	;RP1=0, select bank0
  2926     0539  00B9               	movwf	___flmul@temp+1
  2927     053A  0870               	movf	?__Umul8_16,w
  2928     053B  00B8               	movwf	___flmul@temp
  2929     053C                     l1991:
  2930     053C  0838               	movf	___flmul@temp,w
  2931     053D  00A8               	movwf	??___flmul
  2932     053E  01A9               	clrf	??___flmul+1
  2933     053F  01AA               	clrf	??___flmul+2
  2934     0540  01AB               	clrf	??___flmul+3
  2935     0541  0828               	movf	??___flmul,w
  2936     0542  07AE               	addwf	___flmul@grs,f
  2937     0543  0829               	movf	??___flmul+1,w
  2938     0544  1103               	clrz
  2939     0545  1803               	skipnc
  2940     0546  3E01               	addlw	1
  2941     0547  1903               	skipnz
  2942     0548  2D4A               	goto	u2781
  2943     0549  07AF               	addwf	___flmul@grs+1,f
  2944     054A                     u2781:
  2945     054A  082A               	movf	??___flmul+2,w
  2946     054B  1103               	clrz
  2947     054C  1803               	skipnc
  2948     054D  3E01               	addlw	1
  2949     054E  1903               	skipnz
  2950     054F  2D51               	goto	u2782
  2951     0550  07B0               	addwf	___flmul@grs+2,f
  2952     0551                     u2782:
  2953     0551  082B               	movf	??___flmul+3,w
  2954     0552  1103               	clrz
  2955     0553  1803               	skipnc
  2956     0554  3E01               	addlw	1
  2957     0555  1903               	skipnz
  2958     0556  2D58               	goto	u2783
  2959     0557  07B1               	addwf	___flmul@grs+3,f
  2960     0558                     u2783:
  2961     0558                     l1993:
  2962     0558  0839               	movf	___flmul@temp+1,w
  2963     0559  00A8               	movwf	??___flmul
  2964     055A  01A9               	clrf	??___flmul+1
  2965     055B  01AA               	clrf	??___flmul+2
  2966     055C  01AB               	clrf	??___flmul+3
  2967     055D  0828               	movf	??___flmul,w
  2968     055E  07B4               	addwf	___flmul@prod,f
  2969     055F  0829               	movf	??___flmul+1,w
  2970     0560  1103               	clrz
  2971     0561  1803               	skipnc
  2972     0562  3E01               	addlw	1
  2973     0563  1903               	skipnz
  2974     0564  2D66               	goto	u2791
  2975     0565  07B5               	addwf	___flmul@prod+1,f
  2976     0566                     u2791:
  2977     0566  082A               	movf	??___flmul+2,w
  2978     0567  1103               	clrz
  2979     0568  1803               	skipnc
  2980     0569  3E01               	addlw	1
  2981     056A  1903               	skipnz
  2982     056B  2D6D               	goto	u2792
  2983     056C  07B6               	addwf	___flmul@prod+2,f
  2984     056D                     u2792:
  2985     056D  082B               	movf	??___flmul+3,w
  2986     056E  1103               	clrz
  2987     056F  1803               	skipnc
  2988     0570  3E01               	addlw	1
  2989     0571  1903               	skipnz
  2990     0572  2D74               	goto	u2793
  2991     0573  07B7               	addwf	___flmul@prod+3,f
  2992     0574                     u2793:
  2993     0574  0822               	movf	___flmul@b+2,w
  2994     0575  00F0               	movwf	__Umul8_16@multiplicand
  2995     0576  0824               	movf	___flmul@a,w
  2996     0577  120A  158A  236C  120A  118A  	fcall	__Umul8_16
  2997     057C  0871               	movf	?__Umul8_16+1,w
  2998     057D  1283               	bcf	3,5	;RP0=0, select bank0
  2999     057E  1303               	bcf	3,6	;RP1=0, select bank0
  3000     057F  00B9               	movwf	___flmul@temp+1
  3001     0580  0870               	movf	?__Umul8_16,w
  3002     0581  00B8               	movwf	___flmul@temp
  3003     0582                     l1995:
  3004     0582  0838               	movf	___flmul@temp,w
  3005     0583  00A8               	movwf	??___flmul
  3006     0584  01A9               	clrf	??___flmul+1
  3007     0585  01AA               	clrf	??___flmul+2
  3008     0586  01AB               	clrf	??___flmul+3
  3009     0587  0828               	movf	??___flmul,w
  3010     0588  07AE               	addwf	___flmul@grs,f
  3011     0589  0829               	movf	??___flmul+1,w
  3012     058A  1103               	clrz
  3013     058B  1803               	skipnc
  3014     058C  3E01               	addlw	1
  3015     058D  1903               	skipnz
  3016     058E  2D90               	goto	u2801
  3017     058F  07AF               	addwf	___flmul@grs+1,f
  3018     0590                     u2801:
  3019     0590  082A               	movf	??___flmul+2,w
  3020     0591  1103               	clrz
  3021     0592  1803               	skipnc
  3022     0593  3E01               	addlw	1
  3023     0594  1903               	skipnz
  3024     0595  2D97               	goto	u2802
  3025     0596  07B0               	addwf	___flmul@grs+2,f
  3026     0597                     u2802:
  3027     0597  082B               	movf	??___flmul+3,w
  3028     0598  1103               	clrz
  3029     0599  1803               	skipnc
  3030     059A  3E01               	addlw	1
  3031     059B  1903               	skipnz
  3032     059C  2D9E               	goto	u2803
  3033     059D  07B1               	addwf	___flmul@grs+3,f
  3034     059E                     u2803:
  3035     059E                     l1997:
  3036     059E  0839               	movf	___flmul@temp+1,w
  3037     059F  00A8               	movwf	??___flmul
  3038     05A0  01A9               	clrf	??___flmul+1
  3039     05A1  01AA               	clrf	??___flmul+2
  3040     05A2  01AB               	clrf	??___flmul+3
  3041     05A3  0828               	movf	??___flmul,w
  3042     05A4  07B4               	addwf	___flmul@prod,f
  3043     05A5  0829               	movf	??___flmul+1,w
  3044     05A6  1103               	clrz
  3045     05A7  1803               	skipnc
  3046     05A8  3E01               	addlw	1
  3047     05A9  1903               	skipnz
  3048     05AA  2DAC               	goto	u2811
  3049     05AB  07B5               	addwf	___flmul@prod+1,f
  3050     05AC                     u2811:
  3051     05AC  082A               	movf	??___flmul+2,w
  3052     05AD  1103               	clrz
  3053     05AE  1803               	skipnc
  3054     05AF  3E01               	addlw	1
  3055     05B0  1903               	skipnz
  3056     05B1  2DB3               	goto	u2812
  3057     05B2  07B6               	addwf	___flmul@prod+2,f
  3058     05B3                     u2812:
  3059     05B3  082B               	movf	??___flmul+3,w
  3060     05B4  1103               	clrz
  3061     05B5  1803               	skipnc
  3062     05B6  3E01               	addlw	1
  3063     05B7  1903               	skipnz
  3064     05B8  2DBA               	goto	u2813
  3065     05B9  07B7               	addwf	___flmul@prod+3,f
  3066     05BA                     u2813:
  3067     05BA                     l1999:
  3068     05BA  3008               	movlw	8
  3069     05BB  00A8               	movwf	??___flmul
  3070     05BC                     u2825:
  3071     05BC  1003               	clrc
  3072     05BD  0DAE               	rlf	___flmul@grs,f
  3073     05BE  0DAF               	rlf	___flmul@grs+1,f
  3074     05BF  0DB0               	rlf	___flmul@grs+2,f
  3075     05C0  0DB1               	rlf	___flmul@grs+3,f
  3076     05C1  0BA8               	decfsz	??___flmul,f
  3077     05C2  2DBC               	goto	u2825
  3078     05C3                     l2001:
  3079     05C3  0821               	movf	___flmul@b+1,w
  3080     05C4  00F0               	movwf	__Umul8_16@multiplicand
  3081     05C5  0824               	movf	___flmul@a,w
  3082     05C6  120A  158A  236C  120A  118A  	fcall	__Umul8_16
  3083     05CB  0871               	movf	?__Umul8_16+1,w
  3084     05CC  1283               	bcf	3,5	;RP0=0, select bank0
  3085     05CD  1303               	bcf	3,6	;RP1=0, select bank0
  3086     05CE  00B9               	movwf	___flmul@temp+1
  3087     05CF  0870               	movf	?__Umul8_16,w
  3088     05D0  00B8               	movwf	___flmul@temp
  3089     05D1                     l2003:
  3090     05D1  0838               	movf	___flmul@temp,w
  3091     05D2  00A8               	movwf	??___flmul
  3092     05D3  0839               	movf	___flmul@temp+1,w
  3093     05D4  00A9               	movwf	??___flmul+1
  3094     05D5  01AA               	clrf	??___flmul+2
  3095     05D6  01AB               	clrf	??___flmul+3
  3096     05D7  0828               	movf	??___flmul,w
  3097     05D8  07AE               	addwf	___flmul@grs,f
  3098     05D9  0829               	movf	??___flmul+1,w
  3099     05DA  1103               	clrz
  3100     05DB  1803               	skipnc
  3101     05DC  3E01               	addlw	1
  3102     05DD  1903               	skipnz
  3103     05DE  2DE0               	goto	u2831
  3104     05DF  07AF               	addwf	___flmul@grs+1,f
  3105     05E0                     u2831:
  3106     05E0  082A               	movf	??___flmul+2,w
  3107     05E1  1103               	clrz
  3108     05E2  1803               	skipnc
  3109     05E3  3E01               	addlw	1
  3110     05E4  1903               	skipnz
  3111     05E5  2DE7               	goto	u2832
  3112     05E6  07B0               	addwf	___flmul@grs+2,f
  3113     05E7                     u2832:
  3114     05E7  082B               	movf	??___flmul+3,w
  3115     05E8  1103               	clrz
  3116     05E9  1803               	skipnc
  3117     05EA  3E01               	addlw	1
  3118     05EB  1903               	skipnz
  3119     05EC  2DEE               	goto	u2833
  3120     05ED  07B1               	addwf	___flmul@grs+3,f
  3121     05EE                     u2833:
  3122     05EE                     l2005:
  3123     05EE  0820               	movf	___flmul@b,w
  3124     05EF  00F0               	movwf	__Umul8_16@multiplicand
  3125     05F0  0825               	movf	___flmul@a+1,w
  3126     05F1  120A  158A  236C  120A  118A  	fcall	__Umul8_16
  3127     05F6  0871               	movf	?__Umul8_16+1,w
  3128     05F7  1283               	bcf	3,5	;RP0=0, select bank0
  3129     05F8  1303               	bcf	3,6	;RP1=0, select bank0
  3130     05F9  00B9               	movwf	___flmul@temp+1
  3131     05FA  0870               	movf	?__Umul8_16,w
  3132     05FB  00B8               	movwf	___flmul@temp
  3133     05FC                     l2007:
  3134     05FC  0838               	movf	___flmul@temp,w
  3135     05FD  00A8               	movwf	??___flmul
  3136     05FE  0839               	movf	___flmul@temp+1,w
  3137     05FF  00A9               	movwf	??___flmul+1
  3138     0600  01AA               	clrf	??___flmul+2
  3139     0601  01AB               	clrf	??___flmul+3
  3140     0602  0828               	movf	??___flmul,w
  3141     0603  07AE               	addwf	___flmul@grs,f
  3142     0604  0829               	movf	??___flmul+1,w
  3143     0605  1103               	clrz
  3144     0606  1803               	skipnc
  3145     0607  3E01               	addlw	1
  3146     0608  1903               	skipnz
  3147     0609  2E0B               	goto	u2841
  3148     060A  07AF               	addwf	___flmul@grs+1,f
  3149     060B                     u2841:
  3150     060B  082A               	movf	??___flmul+2,w
  3151     060C  1103               	clrz
  3152     060D  1803               	skipnc
  3153     060E  3E01               	addlw	1
  3154     060F  1903               	skipnz
  3155     0610  2E12               	goto	u2842
  3156     0611  07B0               	addwf	___flmul@grs+2,f
  3157     0612                     u2842:
  3158     0612  082B               	movf	??___flmul+3,w
  3159     0613  1103               	clrz
  3160     0614  1803               	skipnc
  3161     0615  3E01               	addlw	1
  3162     0616  1903               	skipnz
  3163     0617  2E19               	goto	u2843
  3164     0618  07B1               	addwf	___flmul@grs+3,f
  3165     0619                     u2843:
  3166     0619                     l2009:
  3167     0619  3008               	movlw	8
  3168     061A  00A8               	movwf	??___flmul
  3169     061B                     u2855:
  3170     061B  1003               	clrc
  3171     061C  0DAE               	rlf	___flmul@grs,f
  3172     061D  0DAF               	rlf	___flmul@grs+1,f
  3173     061E  0DB0               	rlf	___flmul@grs+2,f
  3174     061F  0DB1               	rlf	___flmul@grs+3,f
  3175     0620  0BA8               	decfsz	??___flmul,f
  3176     0621  2E1B               	goto	u2855
  3177     0622  0820               	movf	___flmul@b,w
  3178     0623  00F0               	movwf	__Umul8_16@multiplicand
  3179     0624  0824               	movf	___flmul@a,w
  3180     0625  120A  158A  236C  120A  118A  	fcall	__Umul8_16
  3181     062A  0871               	movf	?__Umul8_16+1,w
  3182     062B  1283               	bcf	3,5	;RP0=0, select bank0
  3183     062C  1303               	bcf	3,6	;RP1=0, select bank0
  3184     062D  00B9               	movwf	___flmul@temp+1
  3185     062E  0870               	movf	?__Umul8_16,w
  3186     062F  00B8               	movwf	___flmul@temp
  3187     0630                     l2011:
  3188     0630  0838               	movf	___flmul@temp,w
  3189     0631  00A8               	movwf	??___flmul
  3190     0632  0839               	movf	___flmul@temp+1,w
  3191     0633  00A9               	movwf	??___flmul+1
  3192     0634  01AA               	clrf	??___flmul+2
  3193     0635  01AB               	clrf	??___flmul+3
  3194     0636  0828               	movf	??___flmul,w
  3195     0637  07AE               	addwf	___flmul@grs,f
  3196     0638  0829               	movf	??___flmul+1,w
  3197     0639  1103               	clrz
  3198     063A  1803               	skipnc
  3199     063B  3E01               	addlw	1
  3200     063C  1903               	skipnz
  3201     063D  2E3F               	goto	u2861
  3202     063E  07AF               	addwf	___flmul@grs+1,f
  3203     063F                     u2861:
  3204     063F  082A               	movf	??___flmul+2,w
  3205     0640  1103               	clrz
  3206     0641  1803               	skipnc
  3207     0642  3E01               	addlw	1
  3208     0643  1903               	skipnz
  3209     0644  2E46               	goto	u2862
  3210     0645  07B0               	addwf	___flmul@grs+2,f
  3211     0646                     u2862:
  3212     0646  082B               	movf	??___flmul+3,w
  3213     0647  1103               	clrz
  3214     0648  1803               	skipnc
  3215     0649  3E01               	addlw	1
  3216     064A  1903               	skipnz
  3217     064B  2E4D               	goto	u2863
  3218     064C  07B1               	addwf	___flmul@grs+3,f
  3219     064D                     u2863:
  3220     064D                     l2013:
  3221     064D  0821               	movf	___flmul@b+1,w
  3222     064E  00F0               	movwf	__Umul8_16@multiplicand
  3223     064F  0826               	movf	___flmul@a+2,w
  3224     0650  120A  158A  236C  120A  118A  	fcall	__Umul8_16
  3225     0655  0871               	movf	?__Umul8_16+1,w
  3226     0656  1283               	bcf	3,5	;RP0=0, select bank0
  3227     0657  1303               	bcf	3,6	;RP1=0, select bank0
  3228     0658  00B9               	movwf	___flmul@temp+1
  3229     0659  0870               	movf	?__Umul8_16,w
  3230     065A  00B8               	movwf	___flmul@temp
  3231     065B  0838               	movf	___flmul@temp,w
  3232     065C  00A8               	movwf	??___flmul
  3233     065D  0839               	movf	___flmul@temp+1,w
  3234     065E  00A9               	movwf	??___flmul+1
  3235     065F  01AA               	clrf	??___flmul+2
  3236     0660  01AB               	clrf	??___flmul+3
  3237     0661  0828               	movf	??___flmul,w
  3238     0662  07B4               	addwf	___flmul@prod,f
  3239     0663  0829               	movf	??___flmul+1,w
  3240     0664  1103               	clrz
  3241     0665  1803               	skipnc
  3242     0666  3E01               	addlw	1
  3243     0667  1903               	skipnz
  3244     0668  2E6A               	goto	u2871
  3245     0669  07B5               	addwf	___flmul@prod+1,f
  3246     066A                     u2871:
  3247     066A  082A               	movf	??___flmul+2,w
  3248     066B  1103               	clrz
  3249     066C  1803               	skipnc
  3250     066D  3E01               	addlw	1
  3251     066E  1903               	skipnz
  3252     066F  2E71               	goto	u2872
  3253     0670  07B6               	addwf	___flmul@prod+2,f
  3254     0671                     u2872:
  3255     0671  082B               	movf	??___flmul+3,w
  3256     0672  1103               	clrz
  3257     0673  1803               	skipnc
  3258     0674  3E01               	addlw	1
  3259     0675  1903               	skipnz
  3260     0676  2E78               	goto	u2873
  3261     0677  07B7               	addwf	___flmul@prod+3,f
  3262     0678                     u2873:
  3263     0678                     l2015:
  3264     0678  0822               	movf	___flmul@b+2,w
  3265     0679  00F0               	movwf	__Umul8_16@multiplicand
  3266     067A  0825               	movf	___flmul@a+1,w
  3267     067B  120A  158A  236C  120A  118A  	fcall	__Umul8_16
  3268     0680  0871               	movf	?__Umul8_16+1,w
  3269     0681  1283               	bcf	3,5	;RP0=0, select bank0
  3270     0682  1303               	bcf	3,6	;RP1=0, select bank0
  3271     0683  00B9               	movwf	___flmul@temp+1
  3272     0684  0870               	movf	?__Umul8_16,w
  3273     0685  00B8               	movwf	___flmul@temp
  3274     0686                     l2017:
  3275     0686  0838               	movf	___flmul@temp,w
  3276     0687  00A8               	movwf	??___flmul
  3277     0688  0839               	movf	___flmul@temp+1,w
  3278     0689  00A9               	movwf	??___flmul+1
  3279     068A  01AA               	clrf	??___flmul+2
  3280     068B  01AB               	clrf	??___flmul+3
  3281     068C  0828               	movf	??___flmul,w
  3282     068D  07B4               	addwf	___flmul@prod,f
  3283     068E  0829               	movf	??___flmul+1,w
  3284     068F  1103               	clrz
  3285     0690  1803               	skipnc
  3286     0691  3E01               	addlw	1
  3287     0692  1903               	skipnz
  3288     0693  2E95               	goto	u2881
  3289     0694  07B5               	addwf	___flmul@prod+1,f
  3290     0695                     u2881:
  3291     0695  082A               	movf	??___flmul+2,w
  3292     0696  1103               	clrz
  3293     0697  1803               	skipnc
  3294     0698  3E01               	addlw	1
  3295     0699  1903               	skipnz
  3296     069A  2E9C               	goto	u2882
  3297     069B  07B6               	addwf	___flmul@prod+2,f
  3298     069C                     u2882:
  3299     069C  082B               	movf	??___flmul+3,w
  3300     069D  1103               	clrz
  3301     069E  1803               	skipnc
  3302     069F  3E01               	addlw	1
  3303     06A0  1903               	skipnz
  3304     06A1  2EA3               	goto	u2883
  3305     06A2  07B7               	addwf	___flmul@prod+3,f
  3306     06A3                     u2883:
  3307     06A3  0822               	movf	___flmul@b+2,w
  3308     06A4  00F0               	movwf	__Umul8_16@multiplicand
  3309     06A5  0826               	movf	___flmul@a+2,w
  3310     06A6  120A  158A  236C  120A  118A  	fcall	__Umul8_16
  3311     06AB  0871               	movf	?__Umul8_16+1,w
  3312     06AC  1283               	bcf	3,5	;RP0=0, select bank0
  3313     06AD  1303               	bcf	3,6	;RP1=0, select bank0
  3314     06AE  00B9               	movwf	___flmul@temp+1
  3315     06AF  0870               	movf	?__Umul8_16,w
  3316     06B0  00B8               	movwf	___flmul@temp
  3317     06B1                     l2019:
  3318     06B1  0838               	movf	___flmul@temp,w
  3319     06B2  00A8               	movwf	??___flmul
  3320     06B3  0839               	movf	___flmul@temp+1,w
  3321     06B4  00A9               	movwf	??___flmul+1
  3322     06B5  01AA               	clrf	??___flmul+2
  3323     06B6  01AB               	clrf	??___flmul+3
  3324     06B7  3008               	movlw	8
  3325     06B8                     u2895:
  3326     06B8  1003               	clrc
  3327     06B9  0DA8               	rlf	??___flmul,f
  3328     06BA  0DA9               	rlf	??___flmul+1,f
  3329     06BB  0DAA               	rlf	??___flmul+2,f
  3330     06BC  0DAB               	rlf	??___flmul+3,f
  3331     06BD                     u2890:
  3332     06BD  3EFF               	addlw	-1
  3333     06BE  1D03               	skipz
  3334     06BF  2EB8               	goto	u2895
  3335     06C0  0828               	movf	??___flmul,w
  3336     06C1  07B4               	addwf	___flmul@prod,f
  3337     06C2  0829               	movf	??___flmul+1,w
  3338     06C3  1103               	clrz
  3339     06C4  1803               	skipnc
  3340     06C5  3E01               	addlw	1
  3341     06C6  1903               	skipnz
  3342     06C7  2EC9               	goto	u2901
  3343     06C8  07B5               	addwf	___flmul@prod+1,f
  3344     06C9                     u2901:
  3345     06C9  082A               	movf	??___flmul+2,w
  3346     06CA  1103               	clrz
  3347     06CB  1803               	skipnc
  3348     06CC  3E01               	addlw	1
  3349     06CD  1903               	skipnz
  3350     06CE  2ED0               	goto	u2902
  3351     06CF  07B6               	addwf	___flmul@prod+2,f
  3352     06D0                     u2902:
  3353     06D0  082B               	movf	??___flmul+3,w
  3354     06D1  1103               	clrz
  3355     06D2  1803               	skipnc
  3356     06D3  3E01               	addlw	1
  3357     06D4  1903               	skipnz
  3358     06D5  2ED7               	goto	u2903
  3359     06D6  07B7               	addwf	___flmul@prod+3,f
  3360     06D7                     u2903:
  3361     06D7                     l2021:
  3362     06D7  082E               	movf	___flmul@grs,w
  3363     06D8  00A8               	movwf	??___flmul
  3364     06D9  082F               	movf	___flmul@grs+1,w
  3365     06DA  00A9               	movwf	??___flmul+1
  3366     06DB  0830               	movf	___flmul@grs+2,w
  3367     06DC  00AA               	movwf	??___flmul+2
  3368     06DD  0831               	movf	___flmul@grs+3,w
  3369     06DE  00AB               	movwf	??___flmul+3
  3370     06DF  3018               	movlw	24
  3371     06E0                     u2915:
  3372     06E0  1003               	clrc
  3373     06E1  0CAB               	rrf	??___flmul+3,f
  3374     06E2  0CAA               	rrf	??___flmul+2,f
  3375     06E3  0CA9               	rrf	??___flmul+1,f
  3376     06E4  0CA8               	rrf	??___flmul,f
  3377     06E5                     u2910:
  3378     06E5  3EFF               	addlw	-1
  3379     06E6  1D03               	skipz
  3380     06E7  2EE0               	goto	u2915
  3381     06E8  0828               	movf	??___flmul,w
  3382     06E9  07B4               	addwf	___flmul@prod,f
  3383     06EA  0829               	movf	??___flmul+1,w
  3384     06EB  1103               	clrz
  3385     06EC  1803               	skipnc
  3386     06ED  3E01               	addlw	1
  3387     06EE  1903               	skipnz
  3388     06EF  2EF1               	goto	u2921
  3389     06F0  07B5               	addwf	___flmul@prod+1,f
  3390     06F1                     u2921:
  3391     06F1  082A               	movf	??___flmul+2,w
  3392     06F2  1103               	clrz
  3393     06F3  1803               	skipnc
  3394     06F4  3E01               	addlw	1
  3395     06F5  1903               	skipnz
  3396     06F6  2EF8               	goto	u2922
  3397     06F7  07B6               	addwf	___flmul@prod+2,f
  3398     06F8                     u2922:
  3399     06F8  082B               	movf	??___flmul+3,w
  3400     06F9  1103               	clrz
  3401     06FA  1803               	skipnc
  3402     06FB  3E01               	addlw	1
  3403     06FC  1903               	skipnz
  3404     06FD  2EFF               	goto	u2923
  3405     06FE  07B7               	addwf	___flmul@prod+3,f
  3406     06FF                     u2923:
  3407     06FF                     l2023:
  3408     06FF  3008               	movlw	8
  3409     0700  00A8               	movwf	??___flmul
  3410     0701                     u2935:
  3411     0701  1003               	clrc
  3412     0702  0DAE               	rlf	___flmul@grs,f
  3413     0703  0DAF               	rlf	___flmul@grs+1,f
  3414     0704  0DB0               	rlf	___flmul@grs+2,f
  3415     0705  0DB1               	rlf	___flmul@grs+3,f
  3416     0706  0BA8               	decfsz	??___flmul,f
  3417     0707  2F01               	goto	u2935
  3418     0708                     l2025:
  3419     0708  0833               	movf	___flmul@bexp,w
  3420     0709  0732               	addwf	___flmul@aexp,w
  3421     070A  00A8               	movwf	??___flmul
  3422     070B  01A9               	clrf	??___flmul+1
  3423     070C  0DA9               	rlf	??___flmul+1,f
  3424     070D  0828               	movf	??___flmul,w
  3425     070E  3E82               	addlw	130
  3426     070F  00B8               	movwf	___flmul@temp
  3427     0710  0829               	movf	??___flmul+1,w
  3428     0711  1803               	skipnc
  3429     0712  3E01               	addlw	1
  3430     0713  3EFF               	addlw	255
  3431     0714  00B9               	movwf	___flmul@temp+1
  3432     0715  2F33               	goto	l2037
  3433     0716                     l2027:
  3434     0716  3001               	movlw	1
  3435     0717  00A8               	movwf	??___flmul
  3436     0718                     u2945:
  3437     0718  1003               	clrc
  3438     0719  0DB4               	rlf	___flmul@prod,f
  3439     071A  0DB5               	rlf	___flmul@prod+1,f
  3440     071B  0DB6               	rlf	___flmul@prod+2,f
  3441     071C  0DB7               	rlf	___flmul@prod+3,f
  3442     071D  0BA8               	decfsz	??___flmul,f
  3443     071E  2F18               	goto	u2945
  3444     071F                     l2029:
  3445     071F  1FB1               	btfss	___flmul@grs+3,7
  3446     0720  2F22               	goto	u2951
  3447     0721  2F23               	goto	u2950
  3448     0722                     u2951:
  3449     0722  2F24               	goto	l2033
  3450     0723                     u2950:
  3451     0723                     l2031:
  3452     0723  1434               	bsf	___flmul@prod,0
  3453     0724                     l2033:
  3454     0724  3001               	movlw	1
  3455     0725  00A8               	movwf	??___flmul
  3456     0726                     u2965:
  3457     0726  1003               	clrc
  3458     0727  0DAE               	rlf	___flmul@grs,f
  3459     0728  0DAF               	rlf	___flmul@grs+1,f
  3460     0729  0DB0               	rlf	___flmul@grs+2,f
  3461     072A  0DB1               	rlf	___flmul@grs+3,f
  3462     072B  0BA8               	decfsz	??___flmul,f
  3463     072C  2F26               	goto	u2965
  3464     072D                     l2035:
  3465     072D  30FF               	movlw	255
  3466     072E  07B8               	addwf	___flmul@temp,f
  3467     072F  1803               	skipnc
  3468     0730  0AB9               	incf	___flmul@temp+1,f
  3469     0731  30FF               	movlw	255
  3470     0732  07B9               	addwf	___flmul@temp+1,f
  3471     0733                     l2037:
  3472     0733  1FB6               	btfss	___flmul@prod+2,7
  3473     0734  2F36               	goto	u2971
  3474     0735  2F37               	goto	u2970
  3475     0736                     u2971:
  3476     0736  2F16               	goto	l2027
  3477     0737                     u2970:
  3478     0737                     l2039:
  3479     0737  01B2               	clrf	___flmul@aexp
  3480     0738                     l2041:
  3481     0738  1FB1               	btfss	___flmul@grs+3,7
  3482     0739  2F3B               	goto	u2981
  3483     073A  2F3C               	goto	u2980
  3484     073B                     u2981:
  3485     073B  2F58               	goto	l2049
  3486     073C                     u2980:
  3487     073C                     l2043:
  3488     073C  30FF               	movlw	255
  3489     073D  052E               	andwf	___flmul@grs,w
  3490     073E  00A8               	movwf	??___flmul
  3491     073F  30FF               	movlw	255
  3492     0740  052F               	andwf	___flmul@grs+1,w
  3493     0741  00A9               	movwf	??___flmul+1
  3494     0742  30FF               	movlw	255
  3495     0743  0530               	andwf	___flmul@grs+2,w
  3496     0744  00AA               	movwf	??___flmul+2
  3497     0745  307F               	movlw	127
  3498     0746  0531               	andwf	___flmul@grs+3,w
  3499     0747  00AB               	movwf	??___flmul+3
  3500     0748  082B               	movf	??___flmul+3,w
  3501     0749  042A               	iorwf	??___flmul+2,w
  3502     074A  0429               	iorwf	??___flmul+1,w
  3503     074B  0428               	iorwf	??___flmul,w
  3504     074C  1903               	skipnz
  3505     074D  2F4F               	goto	u2991
  3506     074E  2F50               	goto	u2990
  3507     074F                     u2991:
  3508     074F  2F53               	goto	l582
  3509     0750                     u2990:
  3510     0750                     l2045:
  3511     0750  01B2               	clrf	___flmul@aexp
  3512     0751  0AB2               	incf	___flmul@aexp,f
  3513     0752  2F58               	goto	l2049
  3514     0753                     l582:
  3515     0753  1C34               	btfss	___flmul@prod,0
  3516     0754  2F56               	goto	u3001
  3517     0755  2F57               	goto	u3000
  3518     0756                     u3001:
  3519     0756  2F58               	goto	l2049
  3520     0757                     u3000:
  3521     0757  2F50               	goto	l2045
  3522     0758                     l2049:
  3523     0758  0832               	movf	___flmul@aexp,w
  3524     0759  1903               	btfsc	3,2
  3525     075A  2F5C               	goto	u3011
  3526     075B  2F5D               	goto	u3010
  3527     075C                     u3011:
  3528     075C  2F8E               	goto	l2059
  3529     075D                     u3010:
  3530     075D                     l2051:
  3531     075D  3001               	movlw	1
  3532     075E  07B4               	addwf	___flmul@prod,f
  3533     075F  3000               	movlw	0
  3534     0760  1803               	skipnc
  3535     0761  3001               	movlw	1
  3536     0762  07B5               	addwf	___flmul@prod+1,f
  3537     0763  3000               	movlw	0
  3538     0764  1803               	skipnc
  3539     0765  3001               	movlw	1
  3540     0766  07B6               	addwf	___flmul@prod+2,f
  3541     0767  3000               	movlw	0
  3542     0768  1803               	skipnc
  3543     0769  3001               	movlw	1
  3544     076A  07B7               	addwf	___flmul@prod+3,f
  3545     076B                     l2053:
  3546     076B  1C37               	btfss	___flmul@prod+3,0
  3547     076C  2F6E               	goto	u3021
  3548     076D  2F6F               	goto	u3020
  3549     076E                     u3021:
  3550     076E  2F8E               	goto	l2059
  3551     076F                     u3020:
  3552     076F                     l2055:
  3553     076F  0834               	movf	___flmul@prod,w
  3554     0770  00A8               	movwf	??___flmul
  3555     0771  0835               	movf	___flmul@prod+1,w
  3556     0772  00A9               	movwf	??___flmul+1
  3557     0773  0836               	movf	___flmul@prod+2,w
  3558     0774  00AA               	movwf	??___flmul+2
  3559     0775  0837               	movf	___flmul@prod+3,w
  3560     0776  00AB               	movwf	??___flmul+3
  3561     0777  3001               	movlw	1
  3562     0778  00AC               	movwf	??___flmul+4
  3563     0779                     u3035:
  3564     0779  0D2B               	rlf	??___flmul+3,w
  3565     077A  0CAB               	rrf	??___flmul+3,f
  3566     077B  0CAA               	rrf	??___flmul+2,f
  3567     077C  0CA9               	rrf	??___flmul+1,f
  3568     077D  0CA8               	rrf	??___flmul,f
  3569     077E                     u3030:
  3570     077E  0BAC               	decfsz	??___flmul+4,f
  3571     077F  2F79               	goto	u3035
  3572     0780  082B               	movf	??___flmul+3,w
  3573     0781  00B7               	movwf	___flmul@prod+3
  3574     0782  082A               	movf	??___flmul+2,w
  3575     0783  00B6               	movwf	___flmul@prod+2
  3576     0784  0829               	movf	??___flmul+1,w
  3577     0785  00B5               	movwf	___flmul@prod+1
  3578     0786  0828               	movf	??___flmul,w
  3579     0787  00B4               	movwf	___flmul@prod
  3580     0788                     l2057:
  3581     0788  3001               	movlw	1
  3582     0789  07B8               	addwf	___flmul@temp,f
  3583     078A  1803               	skipnc
  3584     078B  0AB9               	incf	___flmul@temp+1,f
  3585     078C  3000               	movlw	0
  3586     078D  07B9               	addwf	___flmul@temp+1,f
  3587     078E                     l2059:
  3588     078E  0839               	movf	___flmul@temp+1,w
  3589     078F  3A80               	xorlw	128
  3590     0790  00FF               	movwf	btemp+1
  3591     0791  3080               	movlw	128
  3592     0792  027F               	subwf	btemp+1,w
  3593     0793  1D03               	skipz
  3594     0794  2F97               	goto	u3045
  3595     0795  30FF               	movlw	255
  3596     0796  0238               	subwf	___flmul@temp,w
  3597     0797                     u3045:
  3598     0797  1C03               	skipc
  3599     0798  2F9A               	goto	u3041
  3600     0799  2F9B               	goto	u3040
  3601     079A                     u3041:
  3602     079A  2FA6               	goto	l2063
  3603     079B                     u3040:
  3604     079B                     l2061:
  3605     079B  307F               	movlw	127
  3606     079C  1283               	bcf	3,5	;RP0=0, select bank0
  3607     079D  1303               	bcf	3,6	;RP1=0, select bank0
  3608     079E  00B7               	movwf	___flmul@prod+3
  3609     079F  3080               	movlw	128
  3610     07A0  00B6               	movwf	___flmul@prod+2
  3611     07A1  3000               	movlw	0
  3612     07A2  00B5               	movwf	___flmul@prod+1
  3613     07A3  3000               	movlw	0
  3614     07A4  00B4               	movwf	___flmul@prod
  3615     07A5  2FD7               	goto	l2077
  3616     07A6                     l2063:
  3617     07A6  1283               	bcf	3,5	;RP0=0, select bank0
  3618     07A7  1303               	bcf	3,6	;RP1=0, select bank0
  3619     07A8  0839               	movf	___flmul@temp+1,w
  3620     07A9  3A80               	xorlw	128
  3621     07AA  00FF               	movwf	btemp+1
  3622     07AB  3080               	movlw	128
  3623     07AC  027F               	subwf	btemp+1,w
  3624     07AD  1D03               	skipz
  3625     07AE  2FB1               	goto	u3055
  3626     07AF  3001               	movlw	1
  3627     07B0  0238               	subwf	___flmul@temp,w
  3628     07B1                     u3055:
  3629     07B1  1803               	skipnc
  3630     07B2  2FB4               	goto	u3051
  3631     07B3  2FB5               	goto	u3050
  3632     07B4                     u3051:
  3633     07B4  2FC1               	goto	l2069
  3634     07B5                     u3050:
  3635     07B5                     l2065:
  3636     07B5  3000               	movlw	0
  3637     07B6  1283               	bcf	3,5	;RP0=0, select bank0
  3638     07B7  1303               	bcf	3,6	;RP1=0, select bank0
  3639     07B8  00B7               	movwf	___flmul@prod+3
  3640     07B9  3000               	movlw	0
  3641     07BA  00B6               	movwf	___flmul@prod+2
  3642     07BB  3000               	movlw	0
  3643     07BC  00B5               	movwf	___flmul@prod+1
  3644     07BD  3000               	movlw	0
  3645     07BE  00B4               	movwf	___flmul@prod
  3646     07BF                     l2067:
  3647     07BF  01AD               	clrf	___flmul@sign
  3648     07C0  2FD7               	goto	l2077
  3649     07C1                     l2069:
  3650     07C1  1283               	bcf	3,5	;RP0=0, select bank0
  3651     07C2  1303               	bcf	3,6	;RP1=0, select bank0
  3652     07C3  0838               	movf	___flmul@temp,w
  3653     07C4  00B3               	movwf	___flmul@bexp
  3654     07C5  30FF               	movlw	255
  3655     07C6  05B4               	andwf	___flmul@prod,f
  3656     07C7  30FF               	movlw	255
  3657     07C8  05B5               	andwf	___flmul@prod+1,f
  3658     07C9  307F               	movlw	127
  3659     07CA  05B6               	andwf	___flmul@prod+2,f
  3660     07CB  3000               	movlw	0
  3661     07CC  05B7               	andwf	___flmul@prod+3,f
  3662     07CD                     l2071:
  3663     07CD  1C33               	btfss	___flmul@bexp,0
  3664     07CE  2FD0               	goto	u3061
  3665     07CF  2FD1               	goto	u3060
  3666     07D0                     u3061:
  3667     07D0  2FD2               	goto	l2075
  3668     07D1                     u3060:
  3669     07D1                     l2073:
  3670     07D1  17B6               	bsf	___flmul@prod+2,7
  3671     07D2                     l2075:
  3672     07D2  0833               	movf	___flmul@bexp,w
  3673     07D3  00A8               	movwf	??___flmul
  3674     07D4  1003               	clrc
  3675     07D5  0C28               	rrf	??___flmul,w
  3676     07D6  00B7               	movwf	___flmul@prod+3
  3677     07D7                     l2077:
  3678     07D7  082D               	movf	___flmul@sign,w
  3679     07D8  00FF               	movwf	btemp+1
  3680     07D9  087F               	movf	btemp+1,w
  3681     07DA  04B7               	iorwf	___flmul@prod+3,f
  3682     07DB                     l2079:
  3683     07DB  0837               	movf	___flmul@prod+3,w
  3684     07DC  00A3               	movwf	?___flmul+3
  3685     07DD  0836               	movf	___flmul@prod+2,w
  3686     07DE  00A2               	movwf	?___flmul+2
  3687     07DF  0835               	movf	___flmul@prod+1,w
  3688     07E0  00A1               	movwf	?___flmul+1
  3689     07E1  0834               	movf	___flmul@prod,w
  3690     07E2  00A0               	movwf	?___flmul
  3691     07E3                     l576:
  3692     07E3  0008               	return
  3693     07E4                     __end_of___flmul:
  3694                           
  3695                           	psect	text14
  3696     0B6C                     __ptext14:	
  3697 ;; *************** function __Umul8_16 *****************
  3698 ;; Defined at:
  3699 ;;		line 4 in file "C:\Program Files\Microchip\xc8\v2.46\pic\sources\c99\common\Umul8_16.c"
  3700 ;; Parameters:    Size  Location     Type
  3701 ;;  multiplier      1    wreg     unsigned char 
  3702 ;;  multiplicand    1    0[COMMON] unsigned char 
  3703 ;; Auto vars:     Size  Location     Type
  3704 ;;  multiplier      1    8[COMMON] unsigned char 
  3705 ;;  word_mpld       2    6[COMMON] unsigned short 
  3706 ;;  product         2    4[COMMON] unsigned short 
  3707 ;; Return value:  Size  Location     Type
  3708 ;;                  2    0[COMMON] unsigned int 
  3709 ;; Registers used:
  3710 ;;		wreg, status,2, status,0
  3711 ;; Tracked objects:
  3712 ;;		On entry : 0/0
  3713 ;;		On exit  : 0/0
  3714 ;;		Unchanged: 0/0
  3715 ;; Data sizes:     COMMON   BANK0   BANK1   BANK3   BANK2
  3716 ;;      Params:         2       0       0       0       0
  3717 ;;      Locals:         5       0       0       0       0
  3718 ;;      Temps:          2       0       0       0       0
  3719 ;;      Totals:         9       0       0       0       0
  3720 ;;Total ram usage:        9 bytes
  3721 ;; Hardware stack levels used: 1
  3722 ;; This function calls:
  3723 ;;		Nothing
  3724 ;; This function is called by:
  3725 ;;		___flmul
  3726 ;; This function uses a non-reentrant model
  3727 ;;
  3728                           
  3729     0B6C                     __Umul8_16:	
  3730                           ;psect for function __Umul8_16
  3731                           
  3732                           
  3733                           ;incstack = 0
  3734                           ; Regs used in __Umul8_16: [wreg+status,2+status,0]
  3735                           ;__Umul8_16@multiplier stored from wreg
  3736     0B6C  00F8               	movwf	__Umul8_16@multiplier
  3737     0B6D                     l1487:
  3738     0B6D  01F4               	clrf	__Umul8_16@product
  3739     0B6E  01F5               	clrf	__Umul8_16@product+1
  3740     0B6F                     l1489:
  3741     0B6F  0870               	movf	__Umul8_16@multiplicand,w
  3742     0B70  00F2               	movwf	??__Umul8_16
  3743     0B71  01F3               	clrf	??__Umul8_16+1
  3744     0B72  0872               	movf	??__Umul8_16,w
  3745     0B73  00F6               	movwf	__Umul8_16@word_mpld
  3746     0B74  0873               	movf	??__Umul8_16+1,w
  3747     0B75  00F7               	movwf	__Umul8_16@word_mpld+1
  3748     0B76                     l1491:
  3749     0B76  1C78               	btfss	__Umul8_16@multiplier,0
  3750     0B77  2B79               	goto	u1791
  3751     0B78  2B7A               	goto	u1790
  3752     0B79                     u1791:
  3753     0B79  2B80               	goto	l595
  3754     0B7A                     u1790:
  3755     0B7A                     l1493:
  3756     0B7A  0876               	movf	__Umul8_16@word_mpld,w
  3757     0B7B  07F4               	addwf	__Umul8_16@product,f
  3758     0B7C  1803               	skipnc
  3759     0B7D  0AF5               	incf	__Umul8_16@product+1,f
  3760     0B7E  0877               	movf	__Umul8_16@word_mpld+1,w
  3761     0B7F  07F5               	addwf	__Umul8_16@product+1,f
  3762     0B80                     l595:
  3763     0B80  3001               	movlw	1
  3764     0B81                     u1805:
  3765     0B81  1003               	clrc
  3766     0B82  0DF6               	rlf	__Umul8_16@word_mpld,f
  3767     0B83  0DF7               	rlf	__Umul8_16@word_mpld+1,f
  3768     0B84  3EFF               	addlw	-1
  3769     0B85  1D03               	skipz
  3770     0B86  2B81               	goto	u1805
  3771     0B87  1003               	clrc
  3772     0B88  0CF8               	rrf	__Umul8_16@multiplier,f
  3773     0B89                     l1495:
  3774     0B89  0878               	movf	__Umul8_16@multiplier,w
  3775     0B8A  1D03               	btfss	3,2
  3776     0B8B  2B8D               	goto	u1811
  3777     0B8C  2B8E               	goto	u1810
  3778     0B8D                     u1811:
  3779     0B8D  2B76               	goto	l1491
  3780     0B8E                     u1810:
  3781     0B8E                     l1497:
  3782     0B8E  0875               	movf	__Umul8_16@product+1,w
  3783     0B8F  00F1               	movwf	?__Umul8_16+1
  3784     0B90  0874               	movf	__Umul8_16@product,w
  3785     0B91  00F0               	movwf	?__Umul8_16
  3786     0B92                     l597:
  3787     0B92  0008               	return
  3788     0B93                     __end_of__Umul8_16:
  3789                           
  3790                           	psect	text15
  3791     0078                     __ptext15:	
  3792 ;; *************** function ___fldiv *****************
  3793 ;; Defined at:
  3794 ;;		line 8 in file "C:\Program Files\Microchip\xc8\v2.46\pic\sources\c99\common\sprcdiv.c"
  3795 ;; Parameters:    Size  Location     Type
  3796 ;;  a               4   46[BANK0 ] unsigned int 
  3797 ;;  b               4   50[BANK0 ] unsigned int 
  3798 ;; Auto vars:     Size  Location     Type
  3799 ;;  grs             4   66[BANK0 ] unsigned long 
  3800 ;;  rem             4   59[BANK0 ] unsigned long 
  3801 ;;  new_exp         2   64[BANK0 ] short 
  3802 ;;  aexp            1   71[BANK0 ] unsigned char 
  3803 ;;  bexp            1   70[BANK0 ] unsigned char 
  3804 ;;  sign            1   63[BANK0 ] unsigned char 
  3805 ;; Return value:  Size  Location     Type
  3806 ;;                  4   46[BANK0 ] unsigned char 
  3807 ;; Registers used:
  3808 ;;		wreg, status,2, status,0, btemp+1
  3809 ;; Tracked objects:
  3810 ;;		On entry : 0/0
  3811 ;;		On exit  : 0/0
  3812 ;;		Unchanged: 0/0
  3813 ;; Data sizes:     COMMON   BANK0   BANK1   BANK3   BANK2
  3814 ;;      Params:         0       8       0       0       0
  3815 ;;      Locals:         0      13       0       0       0
  3816 ;;      Temps:          0       5       0       0       0
  3817 ;;      Totals:         0      26       0       0       0
  3818 ;;Total ram usage:       26 bytes
  3819 ;; Hardware stack levels used: 1
  3820 ;; This function calls:
  3821 ;;		Nothing
  3822 ;; This function is called by:
  3823 ;;		_main
  3824 ;; This function uses a non-reentrant model
  3825 ;;
  3826                           
  3827     0078                     ___fldiv:	
  3828                           ;psect for function ___fldiv
  3829                           
  3830     0078                     l1795:	
  3831                           ;incstack = 0
  3832                           ; Regs used in ___fldiv: [wreg+status,2+status,0+btemp+1]
  3833                           
  3834     0078  1283               	bcf	3,5	;RP0=0, select bank0
  3835     0079  1303               	bcf	3,6	;RP1=0, select bank0
  3836     007A  0855               	movf	___fldiv@b+3,w
  3837     007B  3980               	andlw	128
  3838     007C  00DF               	movwf	___fldiv@sign
  3839     007D                     l1797:
  3840     007D  0855               	movf	___fldiv@b+3,w
  3841     007E  00D6               	movwf	??___fldiv
  3842     007F  0756               	addwf	??___fldiv,w
  3843     0080  00E6               	movwf	___fldiv@bexp
  3844     0081                     l1799:
  3845     0081  1FD4               	btfss	___fldiv@b+2,7
  3846     0082  2884               	goto	u2411
  3847     0083  2885               	goto	u2410
  3848     0084                     u2411:
  3849     0084  2886               	goto	l1803
  3850     0085                     u2410:
  3851     0085                     l1801:
  3852     0085  1466               	bsf	___fldiv@bexp,0
  3853     0086                     l1803:
  3854     0086  0866               	movf	___fldiv@bexp,w
  3855     0087  1903               	btfsc	3,2
  3856     0088  288A               	goto	u2421
  3857     0089  288B               	goto	u2420
  3858     008A                     u2421:
  3859     008A  289B               	goto	l1813
  3860     008B                     u2420:
  3861     008B                     l1805:
  3862     008B  0A66               	incf	___fldiv@bexp,w
  3863     008C  1D03               	btfss	3,2
  3864     008D  288F               	goto	u2431
  3865     008E  2890               	goto	u2430
  3866     008F                     u2431:
  3867     008F  2898               	goto	l1809
  3868     0090                     u2430:
  3869     0090                     l1807:
  3870     0090  3000               	movlw	0
  3871     0091  00D5               	movwf	___fldiv@b+3
  3872     0092  3000               	movlw	0
  3873     0093  00D4               	movwf	___fldiv@b+2
  3874     0094  3000               	movlw	0
  3875     0095  00D3               	movwf	___fldiv@b+1
  3876     0096  3000               	movlw	0
  3877     0097  00D2               	movwf	___fldiv@b
  3878     0098                     l1809:
  3879     0098  17D4               	bsf	___fldiv@b+2,7
  3880     0099                     l1811:
  3881     0099  01D5               	clrf	___fldiv@b+3
  3882     009A  28A3               	goto	l1815
  3883     009B                     l1813:
  3884     009B  3000               	movlw	0
  3885     009C  00D5               	movwf	___fldiv@b+3
  3886     009D  3000               	movlw	0
  3887     009E  00D4               	movwf	___fldiv@b+2
  3888     009F  3000               	movlw	0
  3889     00A0  00D3               	movwf	___fldiv@b+1
  3890     00A1  3000               	movlw	0
  3891     00A2  00D2               	movwf	___fldiv@b
  3892     00A3                     l1815:
  3893     00A3  0851               	movf	___fldiv@a+3,w
  3894     00A4  3980               	andlw	128
  3895     00A5  00FF               	movwf	btemp+1
  3896     00A6  087F               	movf	btemp+1,w
  3897     00A7  06DF               	xorwf	___fldiv@sign,f
  3898     00A8                     l1817:
  3899     00A8  0851               	movf	___fldiv@a+3,w
  3900     00A9  00D6               	movwf	??___fldiv
  3901     00AA  0756               	addwf	??___fldiv,w
  3902     00AB  00E7               	movwf	___fldiv@aexp
  3903     00AC                     l1819:
  3904     00AC  1FD0               	btfss	___fldiv@a+2,7
  3905     00AD  28AF               	goto	u2441
  3906     00AE  28B0               	goto	u2440
  3907     00AF                     u2441:
  3908     00AF  28B1               	goto	l1823
  3909     00B0                     u2440:
  3910     00B0                     l1821:
  3911     00B0  1467               	bsf	___fldiv@aexp,0
  3912     00B1                     l1823:
  3913     00B1  0867               	movf	___fldiv@aexp,w
  3914     00B2  1903               	btfsc	3,2
  3915     00B3  28B5               	goto	u2451
  3916     00B4  28B6               	goto	u2450
  3917     00B5                     u2451:
  3918     00B5  28C6               	goto	l1833
  3919     00B6                     u2450:
  3920     00B6                     l1825:
  3921     00B6  0A67               	incf	___fldiv@aexp,w
  3922     00B7  1D03               	btfss	3,2
  3923     00B8  28BA               	goto	u2461
  3924     00B9  28BB               	goto	u2460
  3925     00BA                     u2461:
  3926     00BA  28C3               	goto	l1829
  3927     00BB                     u2460:
  3928     00BB                     l1827:
  3929     00BB  3000               	movlw	0
  3930     00BC  00D1               	movwf	___fldiv@a+3
  3931     00BD  3000               	movlw	0
  3932     00BE  00D0               	movwf	___fldiv@a+2
  3933     00BF  3000               	movlw	0
  3934     00C0  00CF               	movwf	___fldiv@a+1
  3935     00C1  3000               	movlw	0
  3936     00C2  00CE               	movwf	___fldiv@a
  3937     00C3                     l1829:
  3938     00C3  17D0               	bsf	___fldiv@a+2,7
  3939     00C4                     l1831:
  3940     00C4  01D1               	clrf	___fldiv@a+3
  3941     00C5  28CE               	goto	l536
  3942     00C6                     l1833:
  3943     00C6  3000               	movlw	0
  3944     00C7  00D1               	movwf	___fldiv@a+3
  3945     00C8  3000               	movlw	0
  3946     00C9  00D0               	movwf	___fldiv@a+2
  3947     00CA  3000               	movlw	0
  3948     00CB  00CF               	movwf	___fldiv@a+1
  3949     00CC  3000               	movlw	0
  3950     00CD  00CE               	movwf	___fldiv@a
  3951     00CE                     l536:
  3952     00CE  0851               	movf	___fldiv@a+3,w
  3953     00CF  0450               	iorwf	___fldiv@a+2,w
  3954     00D0  044F               	iorwf	___fldiv@a+1,w
  3955     00D1  044E               	iorwf	___fldiv@a,w
  3956     00D2  1D03               	skipz
  3957     00D3  28D5               	goto	u2471
  3958     00D4  28D6               	goto	u2470
  3959     00D5                     u2471:
  3960     00D5  28EF               	goto	l1843
  3961     00D6                     u2470:
  3962     00D6                     l1835:
  3963     00D6  3000               	movlw	0
  3964     00D7  00D5               	movwf	___fldiv@b+3
  3965     00D8  3000               	movlw	0
  3966     00D9  00D4               	movwf	___fldiv@b+2
  3967     00DA  3000               	movlw	0
  3968     00DB  00D3               	movwf	___fldiv@b+1
  3969     00DC  3000               	movlw	0
  3970     00DD  00D2               	movwf	___fldiv@b
  3971     00DE  3080               	movlw	128
  3972     00DF  04D4               	iorwf	___fldiv@b+2,f
  3973     00E0  307F               	movlw	127
  3974     00E1  04D5               	iorwf	___fldiv@b+3,f
  3975     00E2                     l1837:
  3976     00E2  085F               	movf	___fldiv@sign,w
  3977     00E3  00FF               	movwf	btemp+1
  3978     00E4  087F               	movf	btemp+1,w
  3979     00E5  04D5               	iorwf	___fldiv@b+3,f
  3980     00E6                     l1839:
  3981     00E6  0855               	movf	___fldiv@b+3,w
  3982     00E7  00D1               	movwf	?___fldiv+3
  3983     00E8  0854               	movf	___fldiv@b+2,w
  3984     00E9  00D0               	movwf	?___fldiv+2
  3985     00EA  0853               	movf	___fldiv@b+1,w
  3986     00EB  00CF               	movwf	?___fldiv+1
  3987     00EC  0852               	movf	___fldiv@b,w
  3988     00ED  00CE               	movwf	?___fldiv
  3989     00EE  2A46               	goto	l538
  3990     00EF                     l1843:
  3991     00EF  0866               	movf	___fldiv@bexp,w
  3992     00F0  1D03               	btfss	3,2
  3993     00F1  28F3               	goto	u2481
  3994     00F2  28F4               	goto	u2480
  3995     00F3                     u2481:
  3996     00F3  28FD               	goto	l1849
  3997     00F4                     u2480:
  3998     00F4                     l1845:
  3999     00F4  3000               	movlw	0
  4000     00F5  00D1               	movwf	?___fldiv+3
  4001     00F6  3000               	movlw	0
  4002     00F7  00D0               	movwf	?___fldiv+2
  4003     00F8  3000               	movlw	0
  4004     00F9  00CF               	movwf	?___fldiv+1
  4005     00FA  3000               	movlw	0
  4006     00FB  00CE               	movwf	?___fldiv
  4007     00FC  2A46               	goto	l538
  4008     00FD                     l1849:
  4009     00FD  0866               	movf	___fldiv@bexp,w
  4010     00FE  00D6               	movwf	??___fldiv
  4011     00FF  01D7               	clrf	??___fldiv+1
  4012     0100  0857               	movf	??___fldiv+1,w
  4013     0101  00D9               	movwf	??___fldiv+3
  4014     0102  0867               	movf	___fldiv@aexp,w
  4015     0103  0256               	subwf	??___fldiv,w
  4016     0104  00D8               	movwf	??___fldiv+2
  4017     0105  1C03               	skipc
  4018     0106  03D9               	decf	??___fldiv+3,f
  4019     0107  0858               	movf	??___fldiv+2,w
  4020     0108  3E7F               	addlw	127
  4021     0109  00E0               	movwf	___fldiv@new_exp
  4022     010A  0859               	movf	??___fldiv+3,w
  4023     010B  1803               	skipnc
  4024     010C  3E01               	addlw	1
  4025     010D  3E00               	addlw	0
  4026     010E  00E1               	movwf	___fldiv@new_exp+1
  4027     010F                     l1851:
  4028     010F  0855               	movf	___fldiv@b+3,w
  4029     0110  00DE               	movwf	___fldiv@rem+3
  4030     0111  0854               	movf	___fldiv@b+2,w
  4031     0112  00DD               	movwf	___fldiv@rem+2
  4032     0113  0853               	movf	___fldiv@b+1,w
  4033     0114  00DC               	movwf	___fldiv@rem+1
  4034     0115  0852               	movf	___fldiv@b,w
  4035     0116  00DB               	movwf	___fldiv@rem
  4036     0117                     l1853:
  4037     0117  3000               	movlw	0
  4038     0118  00D5               	movwf	___fldiv@b+3
  4039     0119  3000               	movlw	0
  4040     011A  00D4               	movwf	___fldiv@b+2
  4041     011B  3000               	movlw	0
  4042     011C  00D3               	movwf	___fldiv@b+1
  4043     011D  3000               	movlw	0
  4044     011E  00D2               	movwf	___fldiv@b
  4045     011F                     l1855:
  4046     011F  3000               	movlw	0
  4047     0120  00E5               	movwf	___fldiv@grs+3
  4048     0121  3000               	movlw	0
  4049     0122  00E4               	movwf	___fldiv@grs+2
  4050     0123  3000               	movlw	0
  4051     0124  00E3               	movwf	___fldiv@grs+1
  4052     0125  3000               	movlw	0
  4053     0126  00E2               	movwf	___fldiv@grs
  4054     0127                     l1857:
  4055     0127  01E7               	clrf	___fldiv@aexp
  4056     0128  2973               	goto	l1877
  4057     0129                     l1859:
  4058     0129  0867               	movf	___fldiv@aexp,w
  4059     012A  1903               	btfsc	3,2
  4060     012B  292D               	goto	u2491
  4061     012C  292E               	goto	u2490
  4062     012D                     u2491:
  4063     012D  294E               	goto	l1869
  4064     012E                     u2490:
  4065     012E                     l1861:
  4066     012E  3001               	movlw	1
  4067     012F  00D6               	movwf	??___fldiv
  4068     0130                     u2505:
  4069     0130  1003               	clrc
  4070     0131  0DDB               	rlf	___fldiv@rem,f
  4071     0132  0DDC               	rlf	___fldiv@rem+1,f
  4072     0133  0DDD               	rlf	___fldiv@rem+2,f
  4073     0134  0DDE               	rlf	___fldiv@rem+3,f
  4074     0135  0BD6               	decfsz	??___fldiv,f
  4075     0136  2930               	goto	u2505
  4076     0137  3001               	movlw	1
  4077     0138  00D6               	movwf	??___fldiv
  4078     0139                     u2515:
  4079     0139  1003               	clrc
  4080     013A  0DD2               	rlf	___fldiv@b,f
  4081     013B  0DD3               	rlf	___fldiv@b+1,f
  4082     013C  0DD4               	rlf	___fldiv@b+2,f
  4083     013D  0DD5               	rlf	___fldiv@b+3,f
  4084     013E  0BD6               	decfsz	??___fldiv,f
  4085     013F  2939               	goto	u2515
  4086     0140                     l1863:
  4087     0140  1FE5               	btfss	___fldiv@grs+3,7
  4088     0141  2943               	goto	u2521
  4089     0142  2944               	goto	u2520
  4090     0143                     u2521:
  4091     0143  2945               	goto	l1867
  4092     0144                     u2520:
  4093     0144                     l1865:
  4094     0144  1452               	bsf	___fldiv@b,0
  4095     0145                     l1867:
  4096     0145  3001               	movlw	1
  4097     0146  00D6               	movwf	??___fldiv
  4098     0147                     u2535:
  4099     0147  1003               	clrc
  4100     0148  0DE2               	rlf	___fldiv@grs,f
  4101     0149  0DE3               	rlf	___fldiv@grs+1,f
  4102     014A  0DE4               	rlf	___fldiv@grs+2,f
  4103     014B  0DE5               	rlf	___fldiv@grs+3,f
  4104     014C  0BD6               	decfsz	??___fldiv,f
  4105     014D  2947               	goto	u2535
  4106     014E                     l1869:
  4107     014E  0851               	movf	___fldiv@a+3,w
  4108     014F  025E               	subwf	___fldiv@rem+3,w
  4109     0150  1D03               	skipz
  4110     0151  295C               	goto	u2545
  4111     0152  0850               	movf	___fldiv@a+2,w
  4112     0153  025D               	subwf	___fldiv@rem+2,w
  4113     0154  1D03               	skipz
  4114     0155  295C               	goto	u2545
  4115     0156  084F               	movf	___fldiv@a+1,w
  4116     0157  025C               	subwf	___fldiv@rem+1,w
  4117     0158  1D03               	skipz
  4118     0159  295C               	goto	u2545
  4119     015A  084E               	movf	___fldiv@a,w
  4120     015B  025B               	subwf	___fldiv@rem,w
  4121     015C                     u2545:
  4122     015C  1C03               	skipc
  4123     015D  295F               	goto	u2541
  4124     015E  2960               	goto	u2540
  4125     015F                     u2541:
  4126     015F  296F               	goto	l1875
  4127     0160                     u2540:
  4128     0160                     l1871:
  4129     0160  1765               	bsf	___fldiv@grs+3,6
  4130     0161                     l1873:
  4131     0161  084E               	movf	___fldiv@a,w
  4132     0162  02DB               	subwf	___fldiv@rem,f
  4133     0163  084F               	movf	___fldiv@a+1,w
  4134     0164  1C03               	skipc
  4135     0165  0F4F               	incfsz	___fldiv@a+1,w
  4136     0166  02DC               	subwf	___fldiv@rem+1,f
  4137     0167  0850               	movf	___fldiv@a+2,w
  4138     0168  1C03               	skipc
  4139     0169  0F50               	incfsz	___fldiv@a+2,w
  4140     016A  02DD               	subwf	___fldiv@rem+2,f
  4141     016B  0851               	movf	___fldiv@a+3,w
  4142     016C  1C03               	skipc
  4143     016D  0F51               	incfsz	___fldiv@a+3,w
  4144     016E  02DE               	subwf	___fldiv@rem+3,f
  4145     016F                     l1875:
  4146     016F  3001               	movlw	1
  4147     0170  00FF               	movwf	btemp+1
  4148     0171  087F               	movf	btemp+1,w
  4149     0172  07E7               	addwf	___fldiv@aexp,f
  4150     0173                     l1877:
  4151     0173  301A               	movlw	26
  4152     0174  0267               	subwf	___fldiv@aexp,w
  4153     0175  1C03               	skipc
  4154     0176  2978               	goto	u2551
  4155     0177  2979               	goto	u2550
  4156     0178                     u2551:
  4157     0178  2929               	goto	l1859
  4158     0179                     u2550:
  4159     0179                     l1879:
  4160     0179  085E               	movf	___fldiv@rem+3,w
  4161     017A  045D               	iorwf	___fldiv@rem+2,w
  4162     017B  045C               	iorwf	___fldiv@rem+1,w
  4163     017C  045B               	iorwf	___fldiv@rem,w
  4164     017D  1903               	skipnz
  4165     017E  2980               	goto	u2561
  4166     017F  2981               	goto	u2560
  4167     0180                     u2561:
  4168     0180  29A0               	goto	l1893
  4169     0181                     u2560:
  4170     0181                     l1881:
  4171     0181  1462               	bsf	___fldiv@grs,0
  4172     0182  29A0               	goto	l1893
  4173     0183                     l1883:
  4174     0183  3001               	movlw	1
  4175     0184  00D6               	movwf	??___fldiv
  4176     0185                     u2575:
  4177     0185  1003               	clrc
  4178     0186  0DD2               	rlf	___fldiv@b,f
  4179     0187  0DD3               	rlf	___fldiv@b+1,f
  4180     0188  0DD4               	rlf	___fldiv@b+2,f
  4181     0189  0DD5               	rlf	___fldiv@b+3,f
  4182     018A  0BD6               	decfsz	??___fldiv,f
  4183     018B  2985               	goto	u2575
  4184     018C                     l1885:
  4185     018C  1FE5               	btfss	___fldiv@grs+3,7
  4186     018D  298F               	goto	u2581
  4187     018E  2990               	goto	u2580
  4188     018F                     u2581:
  4189     018F  2991               	goto	l1889
  4190     0190                     u2580:
  4191     0190                     l1887:
  4192     0190  1452               	bsf	___fldiv@b,0
  4193     0191                     l1889:
  4194     0191  3001               	movlw	1
  4195     0192  00D6               	movwf	??___fldiv
  4196     0193                     u2595:
  4197     0193  1003               	clrc
  4198     0194  0DE2               	rlf	___fldiv@grs,f
  4199     0195  0DE3               	rlf	___fldiv@grs+1,f
  4200     0196  0DE4               	rlf	___fldiv@grs+2,f
  4201     0197  0DE5               	rlf	___fldiv@grs+3,f
  4202     0198  0BD6               	decfsz	??___fldiv,f
  4203     0199  2993               	goto	u2595
  4204     019A                     l1891:
  4205     019A  30FF               	movlw	255
  4206     019B  07E0               	addwf	___fldiv@new_exp,f
  4207     019C  1803               	skipnc
  4208     019D  0AE1               	incf	___fldiv@new_exp+1,f
  4209     019E  30FF               	movlw	255
  4210     019F  07E1               	addwf	___fldiv@new_exp+1,f
  4211     01A0                     l1893:
  4212     01A0  1FD4               	btfss	___fldiv@b+2,7
  4213     01A1  29A3               	goto	u2601
  4214     01A2  29A4               	goto	u2600
  4215     01A3                     u2601:
  4216     01A3  2983               	goto	l1883
  4217     01A4                     u2600:
  4218     01A4                     l1895:
  4219     01A4  01E7               	clrf	___fldiv@aexp
  4220     01A5                     l1897:
  4221     01A5  1FE5               	btfss	___fldiv@grs+3,7
  4222     01A6  29A8               	goto	u2611
  4223     01A7  29A9               	goto	u2610
  4224     01A8                     u2611:
  4225     01A8  29C5               	goto	l1905
  4226     01A9                     u2610:
  4227     01A9                     l1899:
  4228     01A9  30FF               	movlw	255
  4229     01AA  0562               	andwf	___fldiv@grs,w
  4230     01AB  00D6               	movwf	??___fldiv
  4231     01AC  30FF               	movlw	255
  4232     01AD  0563               	andwf	___fldiv@grs+1,w
  4233     01AE  00D7               	movwf	??___fldiv+1
  4234     01AF  30FF               	movlw	255
  4235     01B0  0564               	andwf	___fldiv@grs+2,w
  4236     01B1  00D8               	movwf	??___fldiv+2
  4237     01B2  307F               	movlw	127
  4238     01B3  0565               	andwf	___fldiv@grs+3,w
  4239     01B4  00D9               	movwf	??___fldiv+3
  4240     01B5  0859               	movf	??___fldiv+3,w
  4241     01B6  0458               	iorwf	??___fldiv+2,w
  4242     01B7  0457               	iorwf	??___fldiv+1,w
  4243     01B8  0456               	iorwf	??___fldiv,w
  4244     01B9  1903               	skipnz
  4245     01BA  29BC               	goto	u2621
  4246     01BB  29BD               	goto	u2620
  4247     01BC                     u2621:
  4248     01BC  29C0               	goto	l552
  4249     01BD                     u2620:
  4250     01BD                     l1901:
  4251     01BD  01E7               	clrf	___fldiv@aexp
  4252     01BE  0AE7               	incf	___fldiv@aexp,f
  4253     01BF  29C5               	goto	l1905
  4254     01C0                     l552:
  4255     01C0  1C52               	btfss	___fldiv@b,0
  4256     01C1  29C3               	goto	u2631
  4257     01C2  29C4               	goto	u2630
  4258     01C3                     u2631:
  4259     01C3  29C5               	goto	l1905
  4260     01C4                     u2630:
  4261     01C4  29BD               	goto	l1901
  4262     01C5                     l1905:
  4263     01C5  0867               	movf	___fldiv@aexp,w
  4264     01C6  1903               	btfsc	3,2
  4265     01C7  29C9               	goto	u2641
  4266     01C8  29CA               	goto	u2640
  4267     01C9                     u2641:
  4268     01C9  29FB               	goto	l1915
  4269     01CA                     u2640:
  4270     01CA                     l1907:
  4271     01CA  3001               	movlw	1
  4272     01CB  07D2               	addwf	___fldiv@b,f
  4273     01CC  3000               	movlw	0
  4274     01CD  1803               	skipnc
  4275     01CE  3001               	movlw	1
  4276     01CF  07D3               	addwf	___fldiv@b+1,f
  4277     01D0  3000               	movlw	0
  4278     01D1  1803               	skipnc
  4279     01D2  3001               	movlw	1
  4280     01D3  07D4               	addwf	___fldiv@b+2,f
  4281     01D4  3000               	movlw	0
  4282     01D5  1803               	skipnc
  4283     01D6  3001               	movlw	1
  4284     01D7  07D5               	addwf	___fldiv@b+3,f
  4285     01D8                     l1909:
  4286     01D8  1C55               	btfss	___fldiv@b+3,0
  4287     01D9  29DB               	goto	u2651
  4288     01DA  29DC               	goto	u2650
  4289     01DB                     u2651:
  4290     01DB  29FB               	goto	l1915
  4291     01DC                     u2650:
  4292     01DC                     l1911:
  4293     01DC  0852               	movf	___fldiv@b,w
  4294     01DD  00D6               	movwf	??___fldiv
  4295     01DE  0853               	movf	___fldiv@b+1,w
  4296     01DF  00D7               	movwf	??___fldiv+1
  4297     01E0  0854               	movf	___fldiv@b+2,w
  4298     01E1  00D8               	movwf	??___fldiv+2
  4299     01E2  0855               	movf	___fldiv@b+3,w
  4300     01E3  00D9               	movwf	??___fldiv+3
  4301     01E4  3001               	movlw	1
  4302     01E5  00DA               	movwf	??___fldiv+4
  4303     01E6                     u2665:
  4304     01E6  0D59               	rlf	??___fldiv+3,w
  4305     01E7  0CD9               	rrf	??___fldiv+3,f
  4306     01E8  0CD8               	rrf	??___fldiv+2,f
  4307     01E9  0CD7               	rrf	??___fldiv+1,f
  4308     01EA  0CD6               	rrf	??___fldiv,f
  4309     01EB                     u2660:
  4310     01EB  0BDA               	decfsz	??___fldiv+4,f
  4311     01EC  29E6               	goto	u2665
  4312     01ED  0859               	movf	??___fldiv+3,w
  4313     01EE  00D5               	movwf	___fldiv@b+3
  4314     01EF  0858               	movf	??___fldiv+2,w
  4315     01F0  00D4               	movwf	___fldiv@b+2
  4316     01F1  0857               	movf	??___fldiv+1,w
  4317     01F2  00D3               	movwf	___fldiv@b+1
  4318     01F3  0856               	movf	??___fldiv,w
  4319     01F4  00D2               	movwf	___fldiv@b
  4320     01F5                     l1913:
  4321     01F5  3001               	movlw	1
  4322     01F6  07E0               	addwf	___fldiv@new_exp,f
  4323     01F7  1803               	skipnc
  4324     01F8  0AE1               	incf	___fldiv@new_exp+1,f
  4325     01F9  3000               	movlw	0
  4326     01FA  07E1               	addwf	___fldiv@new_exp+1,f
  4327     01FB                     l1915:
  4328     01FB  0861               	movf	___fldiv@new_exp+1,w
  4329     01FC  3A80               	xorlw	128
  4330     01FD  00FF               	movwf	btemp+1
  4331     01FE  3080               	movlw	128
  4332     01FF  027F               	subwf	btemp+1,w
  4333     0200  1D03               	skipz
  4334     0201  2A04               	goto	u2675
  4335     0202  30FF               	movlw	255
  4336     0203  0260               	subwf	___fldiv@new_exp,w
  4337     0204                     u2675:
  4338     0204  1C03               	skipc
  4339     0205  2A07               	goto	u2671
  4340     0206  2A08               	goto	u2670
  4341     0207                     u2671:
  4342     0207  2A16               	goto	l1919
  4343     0208                     u2670:
  4344     0208                     l1917:
  4345     0208  30FF               	movlw	255
  4346     0209  1283               	bcf	3,5	;RP0=0, select bank0
  4347     020A  1303               	bcf	3,6	;RP1=0, select bank0
  4348     020B  00E0               	movwf	___fldiv@new_exp
  4349     020C  3000               	movlw	0
  4350     020D  00E1               	movwf	___fldiv@new_exp+1
  4351     020E  3000               	movlw	0
  4352     020F  00D5               	movwf	___fldiv@b+3
  4353     0210  3000               	movlw	0
  4354     0211  00D4               	movwf	___fldiv@b+2
  4355     0212  3000               	movlw	0
  4356     0213  00D3               	movwf	___fldiv@b+1
  4357     0214  3000               	movlw	0
  4358     0215  00D2               	movwf	___fldiv@b
  4359     0216                     l1919:
  4360     0216  1283               	bcf	3,5	;RP0=0, select bank0
  4361     0217  1303               	bcf	3,6	;RP1=0, select bank0
  4362     0218  0861               	movf	___fldiv@new_exp+1,w
  4363     0219  3A80               	xorlw	128
  4364     021A  00FF               	movwf	btemp+1
  4365     021B  3080               	movlw	128
  4366     021C  027F               	subwf	btemp+1,w
  4367     021D  1D03               	skipz
  4368     021E  2A21               	goto	u2685
  4369     021F  3001               	movlw	1
  4370     0220  0260               	subwf	___fldiv@new_exp,w
  4371     0221                     u2685:
  4372     0221  1803               	skipnc
  4373     0222  2A24               	goto	u2681
  4374     0223  2A25               	goto	u2680
  4375     0224                     u2681:
  4376     0224  2A32               	goto	l558
  4377     0225                     u2680:
  4378     0225                     l1921:
  4379     0225  1283               	bcf	3,5	;RP0=0, select bank0
  4380     0226  1303               	bcf	3,6	;RP1=0, select bank0
  4381     0227  01E0               	clrf	___fldiv@new_exp
  4382     0228  01E1               	clrf	___fldiv@new_exp+1
  4383     0229                     l1923:
  4384     0229  3000               	movlw	0
  4385     022A  00D5               	movwf	___fldiv@b+3
  4386     022B  3000               	movlw	0
  4387     022C  00D4               	movwf	___fldiv@b+2
  4388     022D  3000               	movlw	0
  4389     022E  00D3               	movwf	___fldiv@b+1
  4390     022F  3000               	movlw	0
  4391     0230  00D2               	movwf	___fldiv@b
  4392     0231                     l1925:
  4393     0231  01DF               	clrf	___fldiv@sign
  4394     0232                     l558:
  4395     0232  1283               	bcf	3,5	;RP0=0, select bank0
  4396     0233  1303               	bcf	3,6	;RP1=0, select bank0
  4397     0234  0860               	movf	___fldiv@new_exp,w
  4398     0235  00E6               	movwf	___fldiv@bexp
  4399     0236                     l1927:
  4400     0236  1C66               	btfss	___fldiv@bexp,0
  4401     0237  2A39               	goto	u2691
  4402     0238  2A3A               	goto	u2690
  4403     0239                     u2691:
  4404     0239  2A3C               	goto	l1931
  4405     023A                     u2690:
  4406     023A                     l1929:
  4407     023A  17D4               	bsf	___fldiv@b+2,7
  4408     023B  2A40               	goto	l1933
  4409     023C                     l1931:
  4410     023C  307F               	movlw	127
  4411     023D  00FF               	movwf	btemp+1
  4412     023E  087F               	movf	btemp+1,w
  4413     023F  05D4               	andwf	___fldiv@b+2,f
  4414     0240                     l1933:
  4415     0240  0866               	movf	___fldiv@bexp,w
  4416     0241  00D6               	movwf	??___fldiv
  4417     0242  1003               	clrc
  4418     0243  0C56               	rrf	??___fldiv,w
  4419     0244  00D5               	movwf	___fldiv@b+3
  4420     0245  28E2               	goto	l1837
  4421     0246                     l538:
  4422     0246  0008               	return
  4423     0247                     __end_of___fldiv:
  4424                           
  4425                           	psect	text16
  4426     0247                     __ptext16:	
  4427 ;; *************** function ___fladd *****************
  4428 ;; Defined at:
  4429 ;;		line 10 in file "C:\Program Files\Microchip\xc8\v2.46\pic\sources\c99\common\sprcadd.c"
  4430 ;; Parameters:    Size  Location     Type
  4431 ;;  b               4   26[BANK0 ] unsigned char 
  4432 ;;  a               4   30[BANK0 ] unsigned char 
  4433 ;; Auto vars:     Size  Location     Type
  4434 ;;  grs             1   45[BANK0 ] unsigned char 
  4435 ;;  bexp            1   44[BANK0 ] unsigned char 
  4436 ;;  aexp            1   43[BANK0 ] unsigned char 
  4437 ;;  signs           1   42[BANK0 ] unsigned char 
  4438 ;; Return value:  Size  Location     Type
  4439 ;;                  4   26[BANK0 ] unsigned char 
  4440 ;; Registers used:
  4441 ;;		wreg, status,2, status,0, btemp+1
  4442 ;; Tracked objects:
  4443 ;;		On entry : 0/0
  4444 ;;		On exit  : 0/0
  4445 ;;		Unchanged: 0/0
  4446 ;; Data sizes:     COMMON   BANK0   BANK1   BANK3   BANK2
  4447 ;;      Params:         0       8       0       0       0
  4448 ;;      Locals:         0       4       0       0       0
  4449 ;;      Temps:          0       8       0       0       0
  4450 ;;      Totals:         0      20       0       0       0
  4451 ;;Total ram usage:       20 bytes
  4452 ;; Hardware stack levels used: 1
  4453 ;; This function calls:
  4454 ;;		Nothing
  4455 ;; This function is called by:
  4456 ;;		_main
  4457 ;; This function uses a non-reentrant model
  4458 ;;
  4459                           
  4460     0247                     ___fladd:	
  4461                           ;psect for function ___fladd
  4462                           
  4463     0247                     l1595:	
  4464                           ;incstack = 0
  4465                           ; Regs used in ___fladd: [wreg+status,2+status,0+btemp+1]
  4466                           
  4467     0247  1283               	bcf	3,5	;RP0=0, select bank0
  4468     0248  1303               	bcf	3,6	;RP1=0, select bank0
  4469     0249  083D               	movf	___fladd@b+3,w
  4470     024A  3980               	andlw	128
  4471     024B  00CA               	movwf	___fladd@signs
  4472     024C                     l1597:
  4473     024C  083D               	movf	___fladd@b+3,w
  4474     024D  00C2               	movwf	??___fladd
  4475     024E  0742               	addwf	??___fladd,w
  4476     024F  00CC               	movwf	___fladd@bexp
  4477     0250                     l1599:
  4478     0250  1FBC               	btfss	___fladd@b+2,7
  4479     0251  2A53               	goto	u1951
  4480     0252  2A54               	goto	u1950
  4481     0253                     u1951:
  4482     0253  2A55               	goto	l1603
  4483     0254                     u1950:
  4484     0254                     l1601:
  4485     0254  144C               	bsf	___fladd@bexp,0
  4486     0255                     l1603:
  4487     0255  084C               	movf	___fladd@bexp,w
  4488     0256  1903               	btfsc	3,2
  4489     0257  2A59               	goto	u1961
  4490     0258  2A5A               	goto	u1960
  4491     0259                     u1961:
  4492     0259  2A6A               	goto	l1613
  4493     025A                     u1960:
  4494     025A                     l1605:
  4495     025A  0A4C               	incf	___fladd@bexp,w
  4496     025B  1D03               	btfss	3,2
  4497     025C  2A5E               	goto	u1971
  4498     025D  2A5F               	goto	u1970
  4499     025E                     u1971:
  4500     025E  2A67               	goto	l1609
  4501     025F                     u1970:
  4502     025F                     l1607:
  4503     025F  3000               	movlw	0
  4504     0260  00BD               	movwf	___fladd@b+3
  4505     0261  3000               	movlw	0
  4506     0262  00BC               	movwf	___fladd@b+2
  4507     0263  3000               	movlw	0
  4508     0264  00BB               	movwf	___fladd@b+1
  4509     0265  3000               	movlw	0
  4510     0266  00BA               	movwf	___fladd@b
  4511     0267                     l1609:
  4512     0267  17BC               	bsf	___fladd@b+2,7
  4513     0268                     l1611:
  4514     0268  01BD               	clrf	___fladd@b+3
  4515     0269  2A72               	goto	l1615
  4516     026A                     l1613:
  4517     026A  3000               	movlw	0
  4518     026B  00BD               	movwf	___fladd@b+3
  4519     026C  3000               	movlw	0
  4520     026D  00BC               	movwf	___fladd@b+2
  4521     026E  3000               	movlw	0
  4522     026F  00BB               	movwf	___fladd@b+1
  4523     0270  3000               	movlw	0
  4524     0271  00BA               	movwf	___fladd@b
  4525     0272                     l1615:
  4526     0272  0841               	movf	___fladd@a+3,w
  4527     0273  3980               	andlw	128
  4528     0274  00CB               	movwf	___fladd@aexp
  4529     0275                     l1617:
  4530     0275  084B               	movf	___fladd@aexp,w
  4531     0276  064A               	xorwf	___fladd@signs,w
  4532     0277  1903               	skipnz
  4533     0278  2A7A               	goto	u1981
  4534     0279  2A7B               	goto	u1980
  4535     027A                     u1981:
  4536     027A  2A7C               	goto	l1621
  4537     027B                     u1980:
  4538     027B                     l1619:
  4539     027B  174A               	bsf	___fladd@signs,6
  4540     027C                     l1621:
  4541     027C  0841               	movf	___fladd@a+3,w
  4542     027D  00C2               	movwf	??___fladd
  4543     027E  0742               	addwf	??___fladd,w
  4544     027F  00CB               	movwf	___fladd@aexp
  4545     0280                     l1623:
  4546     0280  1FC0               	btfss	___fladd@a+2,7
  4547     0281  2A83               	goto	u1991
  4548     0282  2A84               	goto	u1990
  4549     0283                     u1991:
  4550     0283  2A85               	goto	l1627
  4551     0284                     u1990:
  4552     0284                     l1625:
  4553     0284  144B               	bsf	___fladd@aexp,0
  4554     0285                     l1627:
  4555     0285  084B               	movf	___fladd@aexp,w
  4556     0286  1903               	btfsc	3,2
  4557     0287  2A89               	goto	u2001
  4558     0288  2A8A               	goto	u2000
  4559     0289                     u2001:
  4560     0289  2A9A               	goto	l1637
  4561     028A                     u2000:
  4562     028A                     l1629:
  4563     028A  0A4B               	incf	___fladd@aexp,w
  4564     028B  1D03               	btfss	3,2
  4565     028C  2A8E               	goto	u2011
  4566     028D  2A8F               	goto	u2010
  4567     028E                     u2011:
  4568     028E  2A97               	goto	l1633
  4569     028F                     u2010:
  4570     028F                     l1631:
  4571     028F  3000               	movlw	0
  4572     0290  00C1               	movwf	___fladd@a+3
  4573     0291  3000               	movlw	0
  4574     0292  00C0               	movwf	___fladd@a+2
  4575     0293  3000               	movlw	0
  4576     0294  00BF               	movwf	___fladd@a+1
  4577     0295  3000               	movlw	0
  4578     0296  00BE               	movwf	___fladd@a
  4579     0297                     l1633:
  4580     0297  17C0               	bsf	___fladd@a+2,7
  4581     0298                     l1635:
  4582     0298  01C1               	clrf	___fladd@a+3
  4583     0299  2AA2               	goto	l480
  4584     029A                     l1637:
  4585     029A  3000               	movlw	0
  4586     029B  00C1               	movwf	___fladd@a+3
  4587     029C  3000               	movlw	0
  4588     029D  00C0               	movwf	___fladd@a+2
  4589     029E  3000               	movlw	0
  4590     029F  00BF               	movwf	___fladd@a+1
  4591     02A0  3000               	movlw	0
  4592     02A1  00BE               	movwf	___fladd@a
  4593     02A2                     l480:
  4594     02A2  084C               	movf	___fladd@bexp,w
  4595     02A3  024B               	subwf	___fladd@aexp,w
  4596     02A4  1803               	skipnc
  4597     02A5  2AA7               	goto	u2021
  4598     02A6  2AA8               	goto	u2020
  4599     02A7                     u2021:
  4600     02A7  2ACE               	goto	l1673
  4601     02A8                     u2020:
  4602     02A8                     l1639:
  4603     02A8  1F4A               	btfss	___fladd@signs,6
  4604     02A9  2AAB               	goto	u2031
  4605     02AA  2AAC               	goto	u2030
  4606     02AB                     u2031:
  4607     02AB  2AB0               	goto	l1643
  4608     02AC                     u2030:
  4609     02AC                     l1641:
  4610     02AC  3080               	movlw	128
  4611     02AD  00FF               	movwf	btemp+1
  4612     02AE  087F               	movf	btemp+1,w
  4613     02AF  06CA               	xorwf	___fladd@signs,f
  4614     02B0                     l1643:
  4615     02B0  084C               	movf	___fladd@bexp,w
  4616     02B1  00CD               	movwf	___fladd@grs
  4617     02B2                     l1645:
  4618     02B2  084B               	movf	___fladd@aexp,w
  4619     02B3  00CC               	movwf	___fladd@bexp
  4620     02B4                     l1647:
  4621     02B4  084D               	movf	___fladd@grs,w
  4622     02B5  00CB               	movwf	___fladd@aexp
  4623     02B6                     l1649:
  4624     02B6  083A               	movf	___fladd@b,w
  4625     02B7  00CD               	movwf	___fladd@grs
  4626     02B8                     l1651:
  4627     02B8  083E               	movf	___fladd@a,w
  4628     02B9  00BA               	movwf	___fladd@b
  4629     02BA                     l1653:
  4630     02BA  084D               	movf	___fladd@grs,w
  4631     02BB  00BE               	movwf	___fladd@a
  4632     02BC                     l1655:
  4633     02BC  083B               	movf	___fladd@b+1,w
  4634     02BD  00CD               	movwf	___fladd@grs
  4635     02BE                     l1657:
  4636     02BE  083F               	movf	___fladd@a+1,w
  4637     02BF  00BB               	movwf	___fladd@b+1
  4638     02C0                     l1659:
  4639     02C0  084D               	movf	___fladd@grs,w
  4640     02C1  00BF               	movwf	___fladd@a+1
  4641     02C2                     l1661:
  4642     02C2  083C               	movf	___fladd@b+2,w
  4643     02C3  00CD               	movwf	___fladd@grs
  4644     02C4                     l1663:
  4645     02C4  0840               	movf	___fladd@a+2,w
  4646     02C5  00BC               	movwf	___fladd@b+2
  4647     02C6                     l1665:
  4648     02C6  084D               	movf	___fladd@grs,w
  4649     02C7  00C0               	movwf	___fladd@a+2
  4650     02C8                     l1667:
  4651     02C8  083D               	movf	___fladd@b+3,w
  4652     02C9  00CD               	movwf	___fladd@grs
  4653     02CA                     l1669:
  4654     02CA  0841               	movf	___fladd@a+3,w
  4655     02CB  00BD               	movwf	___fladd@b+3
  4656     02CC                     l1671:
  4657     02CC  084D               	movf	___fladd@grs,w
  4658     02CD  00C1               	movwf	___fladd@a+3
  4659     02CE                     l1673:
  4660     02CE  01CD               	clrf	___fladd@grs
  4661     02CF                     l1675:
  4662     02CF  084B               	movf	___fladd@aexp,w
  4663     02D0  00C2               	movwf	??___fladd
  4664     02D1  01C3               	clrf	??___fladd+1
  4665     02D2  0843               	movf	??___fladd+1,w
  4666     02D3  00C5               	movwf	??___fladd+3
  4667     02D4  084C               	movf	___fladd@bexp,w
  4668     02D5  0242               	subwf	??___fladd,w
  4669     02D6  00C4               	movwf	??___fladd+2
  4670     02D7  1C03               	skipc
  4671     02D8  03C5               	decf	??___fladd+3,f
  4672     02D9  0845               	movf	??___fladd+3,w
  4673     02DA  3A80               	xorlw	128
  4674     02DB  00FF               	movwf	btemp+1
  4675     02DC  3080               	movlw	128
  4676     02DD  027F               	subwf	btemp+1,w
  4677     02DE  1D03               	skipz
  4678     02DF  2AE2               	goto	u2045
  4679     02E0  301A               	movlw	26
  4680     02E1  0244               	subwf	??___fladd+2,w
  4681     02E2                     u2045:
  4682     02E2  1C03               	skipc
  4683     02E3  2AE5               	goto	u2041
  4684     02E4  2AE6               	goto	u2040
  4685     02E5                     u2041:
  4686     02E5  2B1D               	goto	l1691
  4687     02E6                     u2040:
  4688     02E6                     l1677:
  4689     02E6  1283               	bcf	3,5	;RP0=0, select bank0
  4690     02E7  1303               	bcf	3,6	;RP1=0, select bank0
  4691     02E8  083D               	movf	___fladd@b+3,w
  4692     02E9  043C               	iorwf	___fladd@b+2,w
  4693     02EA  043B               	iorwf	___fladd@b+1,w
  4694     02EB  043A               	iorwf	___fladd@b,w
  4695     02EC  1D03               	skipz
  4696     02ED  2AEF               	goto	u2051
  4697     02EE  2AF1               	goto	u2050
  4698     02EF                     u2051:
  4699     02EF  3001               	movlw	1
  4700     02F0  2AF2               	goto	u2060
  4701     02F1                     u2050:
  4702     02F1  3000               	movlw	0
  4703     02F2                     u2060:
  4704     02F2  00CD               	movwf	___fladd@grs
  4705     02F3  3000               	movlw	0
  4706     02F4  00BD               	movwf	___fladd@b+3
  4707     02F5  3000               	movlw	0
  4708     02F6  00BC               	movwf	___fladd@b+2
  4709     02F7  3000               	movlw	0
  4710     02F8  00BB               	movwf	___fladd@b+1
  4711     02F9  3000               	movlw	0
  4712     02FA  00BA               	movwf	___fladd@b
  4713     02FB  084B               	movf	___fladd@aexp,w
  4714     02FC  00CC               	movwf	___fladd@bexp
  4715     02FD  2B25               	goto	l484
  4716     02FE                     l486:
  4717     02FE  1C4D               	btfss	___fladd@grs,0
  4718     02FF  2B01               	goto	u2071
  4719     0300  2B02               	goto	u2070
  4720     0301                     u2071:
  4721     0301  2B09               	goto	l1681
  4722     0302                     u2070:
  4723     0302                     l1679:
  4724     0302  084D               	movf	___fladd@grs,w
  4725     0303  00C2               	movwf	??___fladd
  4726     0304  1003               	clrc
  4727     0305  0C42               	rrf	??___fladd,w
  4728     0306  3801               	iorlw	1
  4729     0307  00CD               	movwf	___fladd@grs
  4730     0308  2B0B               	goto	l1683
  4731     0309                     l1681:
  4732     0309  1003               	clrc
  4733     030A  0CCD               	rrf	___fladd@grs,f
  4734     030B                     l1683:
  4735     030B  1C3A               	btfss	___fladd@b,0
  4736     030C  2B0E               	goto	u2081
  4737     030D  2B0F               	goto	u2080
  4738     030E                     u2081:
  4739     030E  2B10               	goto	l1687
  4740     030F                     u2080:
  4741     030F                     l1685:
  4742     030F  17CD               	bsf	___fladd@grs,7
  4743     0310                     l1687:
  4744     0310  3001               	movlw	1
  4745     0311  00C2               	movwf	??___fladd
  4746     0312                     u2095:
  4747     0312  0D3D               	rlf	___fladd@b+3,w
  4748     0313  0CBD               	rrf	___fladd@b+3,f
  4749     0314  0CBC               	rrf	___fladd@b+2,f
  4750     0315  0CBB               	rrf	___fladd@b+1,f
  4751     0316  0CBA               	rrf	___fladd@b,f
  4752     0317  0BC2               	decfsz	??___fladd& (0+127),f
  4753     0318  2B12               	goto	u2095
  4754     0319                     l1689:
  4755     0319  3001               	movlw	1
  4756     031A  00FF               	movwf	btemp+1
  4757     031B  087F               	movf	btemp+1,w
  4758     031C  07CC               	addwf	___fladd@bexp,f
  4759     031D                     l1691:
  4760     031D  1283               	bcf	3,5	;RP0=0, select bank0
  4761     031E  1303               	bcf	3,6	;RP1=0, select bank0
  4762     031F  084B               	movf	___fladd@aexp,w
  4763     0320  024C               	subwf	___fladd@bexp,w
  4764     0321  1C03               	skipc
  4765     0322  2B24               	goto	u2101
  4766     0323  2B25               	goto	u2100
  4767     0324                     u2101:
  4768     0324  2AFE               	goto	l486
  4769     0325                     u2100:
  4770     0325                     l484:
  4771     0325  1B4A               	btfsc	___fladd@signs,6
  4772     0326  2B28               	goto	u2111
  4773     0327  2B29               	goto	u2110
  4774     0328                     u2111:
  4775     0328  2B72               	goto	l1717
  4776     0329                     u2110:
  4777     0329                     l1693:
  4778     0329  084C               	movf	___fladd@bexp,w
  4779     032A  1D03               	btfss	3,2
  4780     032B  2B2D               	goto	u2121
  4781     032C  2B2E               	goto	u2120
  4782     032D                     u2121:
  4783     032D  2B37               	goto	l1699
  4784     032E                     u2120:
  4785     032E                     l1695:
  4786     032E  3000               	movlw	0
  4787     032F  00BD               	movwf	?___fladd+3
  4788     0330  3000               	movlw	0
  4789     0331  00BC               	movwf	?___fladd+2
  4790     0332  3000               	movlw	0
  4791     0333  00BB               	movwf	?___fladd+1
  4792     0334  3000               	movlw	0
  4793     0335  00BA               	movwf	?___fladd
  4794     0336  2C9E               	goto	l493
  4795     0337                     l1699:
  4796     0337  083E               	movf	___fladd@a,w
  4797     0338  07BA               	addwf	___fladd@b,f
  4798     0339  083F               	movf	___fladd@a+1,w
  4799     033A  1103               	clrz
  4800     033B  1803               	skipnc
  4801     033C  3E01               	addlw	1
  4802     033D  1903               	skipnz
  4803     033E  2B40               	goto	u2131
  4804     033F  07BB               	addwf	___fladd@b+1,f
  4805     0340                     u2131:
  4806     0340  0840               	movf	___fladd@a+2,w
  4807     0341  1103               	clrz
  4808     0342  1803               	skipnc
  4809     0343  3E01               	addlw	1
  4810     0344  1903               	skipnz
  4811     0345  2B47               	goto	u2132
  4812     0346  07BC               	addwf	___fladd@b+2,f
  4813     0347                     u2132:
  4814     0347  0841               	movf	___fladd@a+3,w
  4815     0348  1103               	clrz
  4816     0349  1803               	skipnc
  4817     034A  3E01               	addlw	1
  4818     034B  1903               	skipnz
  4819     034C  2B4E               	goto	u2133
  4820     034D  07BD               	addwf	___fladd@b+3,f
  4821     034E                     u2133:
  4822     034E                     l1701:
  4823     034E  1C3D               	btfss	___fladd@b+3,0
  4824     034F  2B51               	goto	u2141
  4825     0350  2B52               	goto	u2140
  4826     0351                     u2141:
  4827     0351  2C26               	goto	l1753
  4828     0352                     u2140:
  4829     0352                     l1703:
  4830     0352  1C4D               	btfss	___fladd@grs,0
  4831     0353  2B55               	goto	u2151
  4832     0354  2B56               	goto	u2150
  4833     0355                     u2151:
  4834     0355  2B5D               	goto	l1707
  4835     0356                     u2150:
  4836     0356                     l1705:
  4837     0356  084D               	movf	___fladd@grs,w
  4838     0357  00C2               	movwf	??___fladd
  4839     0358  1003               	clrc
  4840     0359  0C42               	rrf	??___fladd,w
  4841     035A  3801               	iorlw	1
  4842     035B  00CD               	movwf	___fladd@grs
  4843     035C  2B5F               	goto	l1709
  4844     035D                     l1707:
  4845     035D  1003               	clrc
  4846     035E  0CCD               	rrf	___fladd@grs,f
  4847     035F                     l1709:
  4848     035F  1C3A               	btfss	___fladd@b,0
  4849     0360  2B62               	goto	u2161
  4850     0361  2B63               	goto	u2160
  4851     0362                     u2161:
  4852     0362  2B64               	goto	l1713
  4853     0363                     u2160:
  4854     0363                     l1711:
  4855     0363  17CD               	bsf	___fladd@grs,7
  4856     0364                     l1713:
  4857     0364  3001               	movlw	1
  4858     0365  00C2               	movwf	??___fladd
  4859     0366                     u2175:
  4860     0366  0D3D               	rlf	___fladd@b+3,w
  4861     0367  0CBD               	rrf	___fladd@b+3,f
  4862     0368  0CBC               	rrf	___fladd@b+2,f
  4863     0369  0CBB               	rrf	___fladd@b+1,f
  4864     036A  0CBA               	rrf	___fladd@b,f
  4865     036B  0BC2               	decfsz	??___fladd& (0+127),f
  4866     036C  2B66               	goto	u2175
  4867     036D                     l1715:
  4868     036D  3001               	movlw	1
  4869     036E  00FF               	movwf	btemp+1
  4870     036F  087F               	movf	btemp+1,w
  4871     0370  07CC               	addwf	___fladd@bexp,f
  4872     0371  2C26               	goto	l1753
  4873     0372                     l1717:
  4874     0372  083D               	movf	___fladd@b+3,w
  4875     0373  3A80               	xorlw	128
  4876     0374  00FF               	movwf	btemp+1
  4877     0375  0841               	movf	___fladd@a+3,w
  4878     0376  3A80               	xorlw	128
  4879     0377  027F               	subwf	btemp+1,w
  4880     0378  1D03               	skipz
  4881     0379  2B84               	goto	u2183
  4882     037A  0840               	movf	___fladd@a+2,w
  4883     037B  023C               	subwf	___fladd@b+2,w
  4884     037C  1D03               	skipz
  4885     037D  2B84               	goto	u2183
  4886     037E  083F               	movf	___fladd@a+1,w
  4887     037F  023B               	subwf	___fladd@b+1,w
  4888     0380  1D03               	skipz
  4889     0381  2B84               	goto	u2183
  4890     0382  083E               	movf	___fladd@a,w
  4891     0383  023A               	subwf	___fladd@b,w
  4892     0384                     u2183:
  4893     0384  1803               	skipnc
  4894     0385  2B87               	goto	u2181
  4895     0386  2B88               	goto	u2180
  4896     0387                     u2181:
  4897     0387  2BE0               	goto	l1729
  4898     0388                     u2180:
  4899     0388                     l1719:
  4900     0388  30FF               	movlw	255
  4901     0389  00C2               	movwf	??___fladd
  4902     038A  30FF               	movlw	255
  4903     038B  00C3               	movwf	??___fladd+1
  4904     038C  30FF               	movlw	255
  4905     038D  00C4               	movwf	??___fladd+2
  4906     038E  30FF               	movlw	255
  4907     038F  00C5               	movwf	??___fladd+3
  4908     0390  083E               	movf	___fladd@a,w
  4909     0391  00C6               	movwf	??___fladd+4
  4910     0392  083F               	movf	___fladd@a+1,w
  4911     0393  00C7               	movwf	??___fladd+5
  4912     0394  0840               	movf	___fladd@a+2,w
  4913     0395  00C8               	movwf	??___fladd+6
  4914     0396  0841               	movf	___fladd@a+3,w
  4915     0397  00C9               	movwf	??___fladd+7
  4916     0398  083A               	movf	___fladd@b,w
  4917     0399  02C6               	subwf	??___fladd+4,f
  4918     039A  083B               	movf	___fladd@b+1,w
  4919     039B  1C03               	skipc
  4920     039C  0F3B               	incfsz	___fladd@b+1,w
  4921     039D  2B9F               	goto	u2191
  4922     039E  2BA0               	goto	u2192
  4923     039F                     u2191:
  4924     039F  02C7               	subwf	??___fladd+5,f
  4925     03A0                     u2192:
  4926     03A0  083C               	movf	___fladd@b+2,w
  4927     03A1  1C03               	skipc
  4928     03A2  0F3C               	incfsz	___fladd@b+2,w
  4929     03A3  2BA5               	goto	u2193
  4930     03A4  2BA6               	goto	u2194
  4931     03A5                     u2193:
  4932     03A5  02C8               	subwf	??___fladd+6,f
  4933     03A6                     u2194:
  4934     03A6  083D               	movf	___fladd@b+3,w
  4935     03A7  1C03               	skipc
  4936     03A8  0F3D               	incfsz	___fladd@b+3,w
  4937     03A9  2BAB               	goto	u2195
  4938     03AA  2BAC               	goto	u2196
  4939     03AB                     u2195:
  4940     03AB  02C9               	subwf	??___fladd+7,f
  4941     03AC                     u2196:
  4942     03AC  0846               	movf	??___fladd+4,w
  4943     03AD  07C2               	addwf	??___fladd,f
  4944     03AE  0847               	movf	??___fladd+5,w
  4945     03AF  1803               	skipnc
  4946     03B0  0F47               	incfsz	??___fladd+5,w
  4947     03B1  2BB3               	goto	u2200
  4948     03B2  2BB4               	goto	u2201
  4949     03B3                     u2200:
  4950     03B3  07C3               	addwf	??___fladd+1,f
  4951     03B4                     u2201:
  4952     03B4  0848               	movf	??___fladd+6,w
  4953     03B5  1803               	skipnc
  4954     03B6  0F48               	incfsz	??___fladd+6,w
  4955     03B7  2BB9               	goto	u2202
  4956     03B8  2BBA               	goto	u2203
  4957     03B9                     u2202:
  4958     03B9  07C4               	addwf	??___fladd+2,f
  4959     03BA                     u2203:
  4960     03BA  0849               	movf	??___fladd+7,w
  4961     03BB  1803               	skipnc
  4962     03BC  0A49               	incf	??___fladd+7,w
  4963     03BD  07C5               	addwf	??___fladd+3,f
  4964     03BE  0845               	movf	??___fladd+3,w
  4965     03BF  00BD               	movwf	___fladd@b+3
  4966     03C0  0844               	movf	??___fladd+2,w
  4967     03C1  00BC               	movwf	___fladd@b+2
  4968     03C2  0843               	movf	??___fladd+1,w
  4969     03C3  00BB               	movwf	___fladd@b+1
  4970     03C4  0842               	movf	??___fladd,w
  4971     03C5  00BA               	movwf	___fladd@b
  4972     03C6                     l1721:
  4973     03C6  3080               	movlw	128
  4974     03C7  00FF               	movwf	btemp+1
  4975     03C8  087F               	movf	btemp+1,w
  4976     03C9  06CA               	xorwf	___fladd@signs,f
  4977     03CA                     l1723:
  4978     03CA  09CD               	comf	___fladd@grs,f
  4979     03CB  0ACD               	incf	___fladd@grs,f
  4980     03CC                     l1725:
  4981     03CC  084D               	movf	___fladd@grs,w
  4982     03CD  1D03               	btfss	3,2
  4983     03CE  2BD0               	goto	u2211
  4984     03CF  2BD1               	goto	u2210
  4985     03D0                     u2211:
  4986     03D0  2BEE               	goto	l501
  4987     03D1                     u2210:
  4988     03D1                     l1727:
  4989     03D1  3001               	movlw	1
  4990     03D2  07BA               	addwf	___fladd@b,f
  4991     03D3  3000               	movlw	0
  4992     03D4  1803               	skipnc
  4993     03D5  3001               	movlw	1
  4994     03D6  07BB               	addwf	___fladd@b+1,f
  4995     03D7  3000               	movlw	0
  4996     03D8  1803               	skipnc
  4997     03D9  3001               	movlw	1
  4998     03DA  07BC               	addwf	___fladd@b+2,f
  4999     03DB  3000               	movlw	0
  5000     03DC  1803               	skipnc
  5001     03DD  3001               	movlw	1
  5002     03DE  07BD               	addwf	___fladd@b+3,f
  5003     03DF  2BEE               	goto	l501
  5004     03E0                     l1729:
  5005     03E0  083E               	movf	___fladd@a,w
  5006     03E1  02BA               	subwf	___fladd@b,f
  5007     03E2  083F               	movf	___fladd@a+1,w
  5008     03E3  1C03               	skipc
  5009     03E4  0F3F               	incfsz	___fladd@a+1,w
  5010     03E5  02BB               	subwf	___fladd@b+1,f
  5011     03E6  0840               	movf	___fladd@a+2,w
  5012     03E7  1C03               	skipc
  5013     03E8  0F40               	incfsz	___fladd@a+2,w
  5014     03E9  02BC               	subwf	___fladd@b+2,f
  5015     03EA  0841               	movf	___fladd@a+3,w
  5016     03EB  1C03               	skipc
  5017     03EC  0F41               	incfsz	___fladd@a+3,w
  5018     03ED  02BD               	subwf	___fladd@b+3,f
  5019     03EE                     l501:
  5020     03EE  083D               	movf	___fladd@b+3,w
  5021     03EF  043C               	iorwf	___fladd@b+2,w
  5022     03F0  043B               	iorwf	___fladd@b+1,w
  5023     03F1  043A               	iorwf	___fladd@b,w
  5024     03F2  1D03               	skipz
  5025     03F3  2BF5               	goto	u2221
  5026     03F4  2BF6               	goto	u2220
  5027     03F5                     u2221:
  5028     03F5  2C22               	goto	l1751
  5029     03F6                     u2220:
  5030     03F6                     l1731:
  5031     03F6  084D               	movf	___fladd@grs,w
  5032     03F7  1D03               	btfss	3,2
  5033     03F8  2BFA               	goto	u2231
  5034     03F9  2BFB               	goto	u2230
  5035     03FA                     u2231:
  5036     03FA  2C22               	goto	l1751
  5037     03FB                     u2230:
  5038     03FB                     l1733:
  5039     03FB  3000               	movlw	0
  5040     03FC  00BD               	movwf	?___fladd+3
  5041     03FD  3000               	movlw	0
  5042     03FE  00BC               	movwf	?___fladd+2
  5043     03FF  3000               	movlw	0
  5044     0400  00BB               	movwf	?___fladd+1
  5045     0401  3000               	movlw	0
  5046     0402  00BA               	movwf	?___fladd
  5047     0403  2C9E               	goto	l493
  5048     0404                     l1737:
  5049     0404  3001               	movlw	1
  5050     0405  00C2               	movwf	??___fladd
  5051     0406                     u2245:
  5052     0406  1003               	clrc
  5053     0407  0DBA               	rlf	___fladd@b,f
  5054     0408  0DBB               	rlf	___fladd@b+1,f
  5055     0409  0DBC               	rlf	___fladd@b+2,f
  5056     040A  0DBD               	rlf	___fladd@b+3,f
  5057     040B  0BC2               	decfsz	??___fladd,f
  5058     040C  2C06               	goto	u2245
  5059     040D                     l1739:
  5060     040D  1FCD               	btfss	___fladd@grs,7
  5061     040E  2C10               	goto	u2251
  5062     040F  2C11               	goto	u2250
  5063     0410                     u2251:
  5064     0410  2C12               	goto	l505
  5065     0411                     u2250:
  5066     0411                     l1741:
  5067     0411  143A               	bsf	___fladd@b,0
  5068     0412                     l505:
  5069     0412  1C4D               	btfss	___fladd@grs,0
  5070     0413  2C15               	goto	u2261
  5071     0414  2C16               	goto	u2260
  5072     0415                     u2261:
  5073     0415  2C19               	goto	l1745
  5074     0416                     u2260:
  5075     0416                     l1743:
  5076     0416  1403               	setc
  5077     0417  0DCD               	rlf	___fladd@grs,f
  5078     0418  2C1B               	goto	l1747
  5079     0419                     l1745:
  5080     0419  1003               	clrc
  5081     041A  0DCD               	rlf	___fladd@grs,f
  5082     041B                     l1747:
  5083     041B  084C               	movf	___fladd@bexp,w
  5084     041C  1903               	btfsc	3,2
  5085     041D  2C1F               	goto	u2271
  5086     041E  2C20               	goto	u2270
  5087     041F                     u2271:
  5088     041F  2C22               	goto	l1751
  5089     0420                     u2270:
  5090     0420                     l1749:
  5091     0420  3001               	movlw	1
  5092     0421  02CC               	subwf	___fladd@bexp,f
  5093     0422                     l1751:
  5094     0422  1FBC               	btfss	___fladd@b+2,7
  5095     0423  2C25               	goto	u2281
  5096     0424  2C26               	goto	u2280
  5097     0425                     u2281:
  5098     0425  2C04               	goto	l1737
  5099     0426                     u2280:
  5100     0426                     l1753:
  5101     0426  01CB               	clrf	___fladd@aexp
  5102     0427                     l1755:
  5103     0427  1FCD               	btfss	___fladd@grs,7
  5104     0428  2C2A               	goto	u2291
  5105     0429  2C2B               	goto	u2290
  5106     042A                     u2291:
  5107     042A  2C39               	goto	l1763
  5108     042B                     u2290:
  5109     042B                     l1757:
  5110     042B  084D               	movf	___fladd@grs,w
  5111     042C  397F               	andlw	127
  5112     042D  1903               	btfsc	3,2
  5113     042E  2C30               	goto	u2301
  5114     042F  2C31               	goto	u2300
  5115     0430                     u2301:
  5116     0430  2C34               	goto	l511
  5117     0431                     u2300:
  5118     0431                     l1759:
  5119     0431  01CB               	clrf	___fladd@aexp
  5120     0432  0ACB               	incf	___fladd@aexp,f
  5121     0433  2C39               	goto	l1763
  5122     0434                     l511:
  5123     0434  1C3A               	btfss	___fladd@b,0
  5124     0435  2C37               	goto	u2311
  5125     0436  2C38               	goto	u2310
  5126     0437                     u2311:
  5127     0437  2C39               	goto	l1763
  5128     0438                     u2310:
  5129     0438  2C31               	goto	l1759
  5130     0439                     l1763:
  5131     0439  084B               	movf	___fladd@aexp,w
  5132     043A  1903               	btfsc	3,2
  5133     043B  2C3D               	goto	u2321
  5134     043C  2C3E               	goto	u2320
  5135     043D                     u2321:
  5136     043D  2C72               	goto	l1773
  5137     043E                     u2320:
  5138     043E                     l1765:
  5139     043E  3001               	movlw	1
  5140     043F  07BA               	addwf	___fladd@b,f
  5141     0440  3000               	movlw	0
  5142     0441  1803               	skipnc
  5143     0442  3001               	movlw	1
  5144     0443  07BB               	addwf	___fladd@b+1,f
  5145     0444  3000               	movlw	0
  5146     0445  1803               	skipnc
  5147     0446  3001               	movlw	1
  5148     0447  07BC               	addwf	___fladd@b+2,f
  5149     0448  3000               	movlw	0
  5150     0449  1803               	skipnc
  5151     044A  3001               	movlw	1
  5152     044B  07BD               	addwf	___fladd@b+3,f
  5153     044C                     l1767:
  5154     044C  1C3D               	btfss	___fladd@b+3,0
  5155     044D  2C4F               	goto	u2331
  5156     044E  2C50               	goto	u2330
  5157     044F                     u2331:
  5158     044F  2C72               	goto	l1773
  5159     0450                     u2330:
  5160     0450                     l1769:
  5161     0450  083A               	movf	___fladd@b,w
  5162     0451  00C2               	movwf	??___fladd
  5163     0452  083B               	movf	___fladd@b+1,w
  5164     0453  00C3               	movwf	??___fladd+1
  5165     0454  083C               	movf	___fladd@b+2,w
  5166     0455  00C4               	movwf	??___fladd+2
  5167     0456  083D               	movf	___fladd@b+3,w
  5168     0457  00C5               	movwf	??___fladd+3
  5169     0458  3001               	movlw	1
  5170     0459  00C6               	movwf	??___fladd+4
  5171     045A                     u2345:
  5172     045A  0D45               	rlf	??___fladd+3,w
  5173     045B  0CC5               	rrf	??___fladd+3,f
  5174     045C  0CC4               	rrf	??___fladd+2,f
  5175     045D  0CC3               	rrf	??___fladd+1,f
  5176     045E  0CC2               	rrf	??___fladd,f
  5177     045F                     u2340:
  5178     045F  0BC6               	decfsz	??___fladd+4,f
  5179     0460  2C5A               	goto	u2345
  5180     0461  0845               	movf	??___fladd+3,w
  5181     0462  00BD               	movwf	___fladd@b+3
  5182     0463  0844               	movf	??___fladd+2,w
  5183     0464  00BC               	movwf	___fladd@b+2
  5184     0465  0843               	movf	??___fladd+1,w
  5185     0466  00BB               	movwf	___fladd@b+1
  5186     0467  0842               	movf	??___fladd,w
  5187     0468  00BA               	movwf	___fladd@b
  5188     0469  0A4C               	incf	___fladd@bexp,w
  5189     046A  1903               	btfsc	3,2
  5190     046B  2C6D               	goto	u2351
  5191     046C  2C6E               	goto	u2350
  5192     046D                     u2351:
  5193     046D  2C72               	goto	l1773
  5194     046E                     u2350:
  5195     046E                     l1771:
  5196     046E  3001               	movlw	1
  5197     046F  00FF               	movwf	btemp+1
  5198     0470  087F               	movf	btemp+1,w
  5199     0471  07CC               	addwf	___fladd@bexp,f
  5200     0472                     l1773:
  5201     0472  0A4C               	incf	___fladd@bexp,w
  5202     0473  1903               	btfsc	3,2
  5203     0474  2C76               	goto	u2361
  5204     0475  2C77               	goto	u2360
  5205     0476                     u2361:
  5206     0476  2C7C               	goto	l1777
  5207     0477                     u2360:
  5208     0477                     l1775:
  5209     0477  084C               	movf	___fladd@bexp,w
  5210     0478  1D03               	btfss	3,2
  5211     0479  2C7B               	goto	u2371
  5212     047A  2C7C               	goto	u2370
  5213     047B                     u2371:
  5214     047B  2C8A               	goto	l1783
  5215     047C                     u2370:
  5216     047C                     l1777:
  5217     047C  3000               	movlw	0
  5218     047D  00BD               	movwf	___fladd@b+3
  5219     047E  3000               	movlw	0
  5220     047F  00BC               	movwf	___fladd@b+2
  5221     0480  3000               	movlw	0
  5222     0481  00BB               	movwf	___fladd@b+1
  5223     0482  3000               	movlw	0
  5224     0483  00BA               	movwf	___fladd@b
  5225     0484                     l1779:
  5226     0484  084C               	movf	___fladd@bexp,w
  5227     0485  1D03               	btfss	3,2
  5228     0486  2C88               	goto	u2381
  5229     0487  2C89               	goto	u2380
  5230     0488                     u2381:
  5231     0488  2C8A               	goto	l1783
  5232     0489                     u2380:
  5233     0489                     l1781:
  5234     0489  01CA               	clrf	___fladd@signs
  5235     048A                     l1783:
  5236     048A  1C4C               	btfss	___fladd@bexp,0
  5237     048B  2C8D               	goto	u2391
  5238     048C  2C8E               	goto	u2390
  5239     048D                     u2391:
  5240     048D  2C90               	goto	l1787
  5241     048E                     u2390:
  5242     048E                     l1785:
  5243     048E  17BC               	bsf	___fladd@b+2,7
  5244     048F  2C94               	goto	l1789
  5245     0490                     l1787:
  5246     0490  307F               	movlw	127
  5247     0491  00FF               	movwf	btemp+1
  5248     0492  087F               	movf	btemp+1,w
  5249     0493  05BC               	andwf	___fladd@b+2,f
  5250     0494                     l1789:
  5251     0494  084C               	movf	___fladd@bexp,w
  5252     0495  00C2               	movwf	??___fladd
  5253     0496  1003               	clrc
  5254     0497  0C42               	rrf	??___fladd,w
  5255     0498  00BD               	movwf	___fladd@b+3
  5256     0499                     l1791:
  5257     0499  1FCA               	btfss	___fladd@signs,7
  5258     049A  2C9C               	goto	u2401
  5259     049B  2C9D               	goto	u2400
  5260     049C                     u2401:
  5261     049C  2C9E               	goto	l523
  5262     049D                     u2400:
  5263     049D                     l1793:
  5264     049D  17BD               	bsf	___fladd@b+3,7
  5265     049E                     l523:
  5266     049E                     l493:
  5267     049E  0008               	return
  5268     049F                     __end_of___fladd:
  5269     007E                     btemp	set	126	;btemp
  5270     007E                     wtemp0	set	126
  5271                           
  5272                           	psect	config
  5273                           
  5274                           ;Config register CONFIG @ 0x2007
  5275                           ;	Oscillator Selection bits
  5276                           ;	FOSC = EXTRC, RC oscillator
  5277                           ;	Watchdog Timer Enable bit
  5278                           ;	WDTE = OFF, WDT disabled
  5279                           ;	Power-up Timer Enable bit
  5280                           ;	PWRTE = OFF, PWRT disabled
  5281                           ;	Brown-out Reset Enable bit
  5282                           ;	BOREN = OFF, BOR disabled
  5283                           ;	Low-Voltage (Single-Supply) In-Circuit Serial Programming Enable bit
  5284                           ;	LVP = OFF, RB3 is digital I/O, HV on MCLR must be used for programming
  5285                           ;	Data EEPROM Memory Code Protection bit
  5286                           ;	CPD = OFF, Data EEPROM code protection off
  5287                           ;	Flash Program Memory Write Enable bits
  5288                           ;	WRT = OFF, Write protection off; all program memory may be written to by EECON control
  5289                           ;	In-Circuit Debugger Mode bit
  5290                           ;	DEBUG = 0x1, unprogrammed default
  5291                           ;	Flash Program Memory Code Protection bit
  5292                           ;	CP = OFF, Code protection off
  5293     2007                     	org	8199
  5294     2007  3F3B               	dw	16187

Data Sizes:
    Strings     0
    Constant    0
    Data        20
    BSS         8
    Persistent  0
    Stack       0

Auto Spaces:
    Space          Size  Autos    Used
    COMMON           14     14      14
    BANK0            80     80      80
    BANK1            80      6      34
    BANK3            96      0       0
    BANK2            96      0       0

Pointer List with Targets:

    None.

Critical Paths under _main in COMMON

    _main->___xxtofl
    _update_pwm_duty->___lwdiv
    _lcd_output_raw->___lwmod
    _lcd_output_cal->___lwmod
    ___lwmod->___lwdiv
    ___lwdiv->___wmul
    _init->_lcd_com
    ___fltol->___xxtofl
    ___flmul->___xxtofl
    ___fldiv->___xxtofl
    ___fladd->___xxtofl

Critical Paths under _main in BANK0

    _main->___fltol
    _lcd_output_raw->___lwmod
    _lcd_output_cal->___lwmod
    ___fltol->___fldiv
    ___fldiv->___fladd
    ___fladd->___flmul

Critical Paths under _main in BANK1

    _main->___fltol

Critical Paths under _main in BANK3

    None.

Critical Paths under _main in BANK2

    None.

Call Graph Tables:

 ---------------------------------------------------------------------------------
 (Depth) Function   	        Calls       Base Space   Used Autos Params    Refs
 ---------------------------------------------------------------------------------
 (0) _main                                                 4     4      0   13565
                                              2 BANK1      4     4      0
                            ___fladd
                            ___fldiv
                            ___flmul
                            ___fltol
                           ___xxtofl
                               _init
                            _lcd_com
                           _lcd_data
                     _lcd_output_cal
                     _lcd_output_raw
                   _read_adc_channel
                    _update_pwm_duty
 ---------------------------------------------------------------------------------
 (1) _update_pwm_duty                                      6     4      2    1439
                                              0 BANK0      6     4      2
                            ___lwdiv
                             ___wmul
 ---------------------------------------------------------------------------------
 (2) ___wmul                                               6     2      4     244
                                              0 COMMON     6     2      4
 ---------------------------------------------------------------------------------
 (1) _read_adc_channel                                     3     3      0      44
                                              0 COMMON     3     3      0
 ---------------------------------------------------------------------------------
 (1) _lcd_output_raw                                       7     5      2    2647
                                              4 BANK0      7     5      2
                            ___lwdiv
                            ___lwmod
                           _lcd_data
 ---------------------------------------------------------------------------------
 (1) _lcd_output_cal                                       5     3      2    2578
                                              4 BANK0      5     3      2
                            ___lwdiv
                            ___lwmod
                           _lcd_data
 ---------------------------------------------------------------------------------
 (2) _lcd_data                                             3     3      0      22
                                              0 COMMON     3     3      0
 ---------------------------------------------------------------------------------
 (2) ___lwmod                                              5     1      4    1223
                                             13 COMMON     1     1      0
                                              0 BANK0      4     0      4
                            ___lwdiv (ARG)
 ---------------------------------------------------------------------------------
 (2) ___lwdiv                                              7     3      4    1074
                                              6 COMMON     7     3      4
                             ___wmul (ARG)
 ---------------------------------------------------------------------------------
 (1) _init                                                 2     2      0      22
                                              3 COMMON     2     2      0
                            _lcd_com
 ---------------------------------------------------------------------------------
 (1) _lcd_com                                              3     3      0      22
                                              0 COMMON     3     3      0
 ---------------------------------------------------------------------------------
 (1) ___xxtofl                                            14    10      4     398
                                              0 COMMON    14    10      4
 ---------------------------------------------------------------------------------
 (1) ___fltol                                             10     6      4     305
                                             72 BANK0      8     4      4
                                              0 BANK1      2     2      0
                            ___fladd (ARG)
                            ___fldiv (ARG)
                            ___flmul (ARG)
                           ___xxtofl (ARG)
 ---------------------------------------------------------------------------------
 (1) ___flmul                                             26    18      8    2417
                                              0 BANK0     26    18      8
                          __Umul8_16
                           ___xxtofl (ARG)
 ---------------------------------------------------------------------------------
 (2) __Umul8_16                                            9     7      2     799
                                              0 COMMON     9     7      2
 ---------------------------------------------------------------------------------
 (1) ___fldiv                                             26    18      8    1273
                                             46 BANK0     26    18      8
                            ___fladd (ARG)
                            ___flmul (ARG)
                           ___xxtofl (ARG)
 ---------------------------------------------------------------------------------
 (1) ___fladd                                             20    12      8    2262
                                             26 BANK0     20    12      8
                            ___flmul (ARG)
                           ___xxtofl (ARG)
 ---------------------------------------------------------------------------------
 Estimated maximum stack depth 2
 ---------------------------------------------------------------------------------

 Call Graph Graphs:

 _main (ROOT)
   ___fladd
     ___flmul (ARG)
       __Umul8_16
       ___xxtofl (ARG)
     ___xxtofl (ARG)
   ___fldiv
     ___fladd (ARG)
     ___flmul (ARG)
     ___xxtofl (ARG)
   ___flmul
   ___fltol
     ___fladd (ARG)
     ___fldiv (ARG)
     ___flmul (ARG)
     ___xxtofl (ARG)
   ___xxtofl
   _init
     _lcd_com
   _lcd_com
   _lcd_data
   _lcd_output_cal
     ___lwdiv
       ___wmul (ARG)
     ___lwmod
       ___lwdiv (ARG)
     _lcd_data
   _lcd_output_raw
     ___lwdiv
     ___lwmod
     _lcd_data
   _read_adc_channel
   _update_pwm_duty
     ___lwdiv
     ___wmul

 Address spaces:
Name               Size   Autos  Total    Cost      Usage
BANK3               60      0       0       9        0.0%
BITBANK3            60      0       0       8        0.0%
SFR3                 0      0       0       4        0.0%
BITSFR3              0      0       0       4        0.0%
BANK2               60      0       0      11        0.0%
BITBANK2            60      0       0      10        0.0%
SFR2                 0      0       0       5        0.0%
BITSFR2              0      0       0       5        0.0%
BANK1               50      6      22       7       42.5%
BITBANK1            50      0       0       6        0.0%
SFR1                 0      0       0       2        0.0%
BITSFR1              0      0       0       2        0.0%
BANK0               50     50      50       5      100.0%
BITBANK0            50      0       0       4        0.0%
SFR0                 0      0       0       1        0.0%
BITSFR0              0      0       0       1        0.0%
COMMON               E      E       E       1      100.0%
BITCOMMON            E      0       0       0        0.0%
CODE                 0      0       0       0        0.0%
DATA                 0      0      80      12        0.0%
ABS                  0      0      80       3        0.0%
NULL                 0      0       0       0        0.0%
STACK                0      0       0       2        0.0%
EEDATA             100      0       0       0        0.0%


Microchip Technology PIC Macro Assembler V2.46 build 20240104201356 
Symbol Table                                                                                   Sat Sep 14 17:53:20 2024

             ___fldiv@aexp 0067               ___fldiv@bexp 0066                          pc 0002  
             ___fldiv@sign 005F                         l72 0BAB                         l81 0077  
                       l90 0B46                         l75 0BBF                         l84 0BEE  
                       l93 0B1B                         l78 0E10                         l87 0CEC  
                       fsr 0004        ___wmul@multiplicand 0072        __Umul8_16@word_mpld 0076  
                      l501 03EE                        l181 0B6B                        l511 0434  
                      l505 0412                        l523 049E                        l179 0B53  
                      l380 0D63                        l620 0E33                        l373 0D7A  
                      l622 0EC8                        l383 0D7A                        l480 02A2  
                      l552 01C0                        l536 00CE                        l633 0E92  
                      l538 0246                        l634 0E9E                        l459 0C6E  
                      l484 0325                        l493 049E                        l469 0C2A  
                      l486 02FE                        l558 0232                        l582 0753  
                      l576 07E3                        l595 0B80                        l597 0B92  
                      _PR2 0092                        fsr0 0004     __end_of_lcd_output_cal 0078  
                      indf 0000     __end_of_lcd_output_raw 0E11               ___flmul@aexp 0032  
             ___flmul@bexp 0033               ___flmul@sign 002D               ___flmul@temp 0038  
             ___flmul@prod 0034               ___fltol@exp1 00BD                       l2001 05C3  
                     l2011 0630                       l2003 05D1                       l2021 06D7  
                     l2013 064D                       l2005 05EE                       l2101 0E54  
                     l2031 0723                       l2023 06FF                       l2015 0678  
                     l2007 05FC                       l2111 0E7D                       l2103 0E5B  
                     l2041 0738                       l2033 0724                       l2025 0708  
                     l2017 0686                       l2009 0619                       l2121 0EB6  
                     l2113 0E88                       l2105 0E5F                       l2051 075D  
                     l2043 073C                       l2035 072D                       l2027 0716  
                     l2019 06B1                       l2123 0EBB                       l2115 0E8C  
                     l2107 0E6D                       l1411 0B39                       l2131 0EC9  
                     l2061 079B                       l2053 076B                       l2045 0750  
                     l2029 071F                       l2037 0733                       l2125 0EBF  
                     l2117 0E96                       l2109 0E76                       l1413 0B3A  
                     l1501 0C6F                       l1421 0B0F                       l2141 0EE4  
                     l2133 0ED4                       l2071 07CD                       l2063 07A6  
                     l2055 076F                       l2039 0737                       l2127 0EC0  
                     l2119 0EA0                       l1407 0B31                       l1511 0C90  
                     l1503 0C73                       l1423 0B13                       l1415 0B09  
                     l1431 0B5A                       l2143 0EEC                       l1601 0254  
                     l2073 07D1                       l2065 07B5                       l2057 0788  
                     l2049 0758                       l1409 0B37                       l1521 0CB4  
                     l1513 0C98                       l1505 0C74                       l1441 0C2D  
                     l1417 0B0C                       l1433 0B61                       l1425 0B47  
                     l2161 0F2A                       l2153 0F03                       l2145 0EF9  
                     l1611 0268                       l1603 0255                       l2075 07D2  
                     l2067 07BF                       l2059 078E                       l2091 0E3B  
                     l2083 0E12                       l1531 0CD6                       l1523 0CBA  
                     l1515 0C9E                       l1507 0C87                       l1451 0C45  
                     l1443 0C33                       l1419 0B0E                       l1435 0B67  
                     l1427 0B49                       l2171 0FC9                       l2163 0F35  
                     l2155 0F0F                       l2147 0EFF                       l2139 0ED8  
                     l1701 034E                       l1621 027C                       l1605 025A  
                     l1613 026A                       l2069 07C1                       l2077 07D7  
                     l2085 0E17                       l1533 0CDE                       l1525 0CC2  
                     l1517 0CA6                       l1509 0C8A                       l1453 0C56  
                     l1445 0C36                       l1461 0C6A                       l1541 0B9E  
                     l1429 0B4D                       l2173 0FCF                       l2165 0F3B  
                     l2157 0F17                       l1711 0363                       l1703 0352  
                     l1631 028F                       l1623 0280                       l1615 0272  
                     l1607 025F                       l2079 07DB                       l2095 0E44  
                     l2087 0E1B                       l1535 0CE4                       l1527 0CC8  
                     l1519 0CAC                       l1455 0C5C                       l1447 0C3D  
                     l1439 0C2B                       l1471 0C01                       l1551 000B  
                     l1543 0BA4                       l2175 0FE0                       l2167 0F4C  
                     l2159 0F24                       l1721 03C6                       l1713 0364  
                     l1705 0356                       l1641 02AC                       l1633 0297  
                     l1625 0284                       l1617 0275                       l1609 0267  
                     l1801 0085                       l2097 0E47                       l2089 0E2B  
                     l1529 0CD0                       l1457 0C5D                       l1449 0C41  
                     l1481 0C20                       l1473 0C05                       l1465 0BEF  
                     l1545 0BA8                       l1537 0B94                       l1553 0BC0  
                     l2169 0F5D                       l1731 03F6                       l1723 03CA  
                     l1715 036D                       l1707 035D                       l1651 02B8  
                     l1643 02B0                       l1635 0298                       l1627 0285  
                     l1619 027B                       l1811 0099                       l1803 0086  
                     l1491 0B76                       l1571 0D2B                       l1563 0D05  
                     l2099 0E4B                       l1459 0C64                       l1475 0C09  
                     l1467 0BF7                       l1483 0C26                       l1547 0BAF  
                     l1539 0B99                       l1555 0BE2                       l1741 0411  
                     l1733 03FB                       l1725 03CC                       l1709 035F  
                     l1717 0372                       l1661 02C2                       l1653 02BA  
                     l1645 02B2                       l1629 028A                       l1637 029A  
                     l1901 01BD                       l1821 00B0                       l1805 008B  
                     l1813 009B                       l1493 0B7A                       l1581 0D42  
                     l1573 0D2F                       l1565 0D1C                       l1557 0CED  
                     l1477 0C13                       l1469 0BFA                       l1549 0D7B  
                     l1743 0416                       l1751 0422                       l1727 03D1  
                     l1719 0388                       l1671 02CC                       l1663 02C4  
                     l1655 02BC                       l1647 02B4                       l1639 02A8  
                     l1911 01DC                       l1831 00C4                       l1823 00B1  
                     l1815 00A3                       l1807 0090                       l1495 0B89  
                     l1487 0B6D                       l1591 0D68                       l1583 0D4D  
                     l1567 0D1F                       l1559 0CFA                       l1479 0C19  
                     l1745 0419                       l1737 0404                       l1729 03E0  
                     l1753 0426                       l1681 0309                       l1665 02C6  
                     l1657 02BE                       l1649 02B6                       l1673 02CE  
                     l1921 0225                       l1913 01F5                       l1905 01C5  
                     l1825 00B6                       l1833 00C6                       l1817 00A8  
                     l1809 0098                       l1497 0B8E                       l1489 0B6F  
                     l1593 0D6D                       l1569 0D27                       l1771 046E  
                     l1763 0439                       l1755 0427                       l1747 041B  
                     l1739 040D                       l1683 030B                       l1691 031D  
                     l1675 02CF                       l1667 02C8                       l1659 02C0  
                     l1595 0247                       l1931 023C                       l1923 0229  
                     l1907 01CA                       l1915 01FB                       l1851 010F  
                     l1835 00D6                       l1843 00EF                       l1827 00BB  
                     l1819 00AC                       l1579 0D37                       l1781 0489  
                     l1765 043E                       l1773 0472                       l1757 042B  
                     l1749 0420                       l1693 0329                       l1685 030F  
                     l1677 02E6                       l1669 02CA                       l1597 024C  
                     l1933 0240                       l1925 0231                       l1917 0208  
                     l1909 01D8                       l1861 012E                       l1853 0117  
                     l1845 00F4                       l1837 00E2                       l1829 00C3  
                     l1941 049F                       l1589 0D54                       l1791 0499  
                     l1783 048A                       l1775 0477                       l1767 044C  
                     l1759 0431                       l1695 032E                       l1687 0310  
                     l1679 0302                       l1599 0250                       l1927 0236  
                     l1919 0216                       l1871 0160                       l1863 0140  
                     l1855 011F                       l1839 00E6                       l1951 04B2  
                     l1943 04A4                       l1793 049D                       l1785 048E  
                     l1777 047C                       l1769 0450                       l1689 0319  
                     l1929 023A                       l1881 0181                       l1873 0161  
                     l1865 0144                       l1857 0127                       l1849 00FD  
                     l1961 04CE                       l1953 04B7                       l1945 04A8  
                     l1787 0490                       l1779 0484                       l1699 0337  
                     l1891 019A                       l1883 0183                       l1875 016F  
                     l1867 0145                       l1859 0129                       l1795 0078  
                     l1971 04E1                       l1963 04D2                       l1955 04BF  
                     l1947 04AC                       l1789 0494                       l1885 018C  
                     l1893 01A0                       l1869 014E                       l1877 0173  
                     l1797 007D                       l1981 04FD                       l1973 04E9  
                     l1965 04D6                       l1957 04C1                       l1949 04AD  
                     l1895 01A4                       l1887 0190                       l1879 0179  
                     l1799 0081                       l1991 053C                       l1975 04EB  
                     l1967 04D7                       l1959 04C9                       l1897 01A5  
                     l1889 0191                       l1993 0558                       l1985 0506  
                     l1977 04F3                       l1969 04DC                       l1899 01A9  
                     l1995 0582                       l1987 0514                       l1979 04F8  
                     l1997 059E                       l1989 0521                       l1999 05BA  
                     u2000 028A                       u2001 0289                       u2010 028F  
                     u2011 028E                       u2100 0325                       u2020 02A8  
                     u2101 0324                       u2021 02A7                       u2110 0329  
                     u2030 02AC                       u2111 0328                       u2031 02AB  
                     u2200 03B3                       u2120 032E                       u2040 02E6  
                     u3000 0757                       u2201 03B4                       u2121 032D  
                     u2041 02E5                       u3001 0756                       u2210 03D1  
                     u2202 03B9                       u2050 02F1                       u3010 075D  
                     u2211 03D0                       u2203 03BA                       u2131 0340  
                     u2051 02EF                       u3011 075C                       u2300 0431  
                     u2220 03F6                       u2140 0352                       u2132 0347  
                     u2060 02F2                       u3020 076F                       u2301 0430  
                     u2221 03F5                       u2141 0351                       u2133 034E  
                     u2045 02E2                       u3021 076E                       u2310 0438  
                     u2230 03FB                       u2150 0356                       u2070 0302  
                     u3030 077E                       u3110 0E5A                       u2311 0437  
                     u2231 03FA                       u2151 0355                       u2071 0301  
                     u3111 0E59                       u2400 049D                       u2320 043E  
                     u2160 0363                       u2080 030F                       u3040 079B  
                     u3200 0EBF                       u2401 049C                       u2321 043D  
                     u2161 0362                       u2081 030E                       u3041 079A  
                     u3201 0EBE                       u3105 0E4C                       u2330 0450  
                     u2250 0411                       u2410 0085                       u3050 07B5  
                     u3130 0E7C                       u3210 0EF9                       u2331 044F  
                     u2251 0410                       u2411 0084                       u3051 07B4  
                     u3035 0779                       u3131 0E7B                       u3211 0EF8  
                     u2340 045F                       u2260 0416                       u2180 0388  
                     u2420 008B                       u3060 07D1                       u1700 0C56  
                     u1620 0B4D                       u3220 0F24                       u2261 0415  
                     u2245 0406                       u2181 0387                       u2421 008A  
                     u3061 07D0                       u3045 0797                       u3125 0E6E  
                     u1701 0C55                       u1621 0B4C                       u3221 0F23  
                     u2350 046E                       u2270 0420                       u2430 0090  
                     u3150 0E8C                       u3070 0E17                       u2351 046D  
                     u2271 041F                       u2191 039F                       u2183 0384  
                     u2175 0366                       u2095 0312                       u2431 008F  
                     u3055 07B1                       u3151 0E8B                       u3071 0E16  
                     u3215 0EF5                       u2360 0477                       u2280 0426  
                     u2192 03A0                       u2600 01A4                       u2520 0144  
                     u2440 00B0                       u3160 0E92                       u3080 0E1B  
                     u1720 0C6A                       u2361 0476                       u2345 045A  
                     u2281 0425                       u2193 03A5                       u2601 01A3  
                     u2521 0143                       u2505 0130                       u2441 00AF  
                     u3161 0E91                       u3145 0E81                       u3081 0E1A  
                     u1721 0C69                       u1705 0C52                       u3225 0F20  
                     u2370 047C                       u2290 042B                       u2194 03A6  
                     u2610 01A9                       u2450 00B6                       u1810 0B8E  
                     u3170 0E96                       u3090 0E3B                       u1730 0BF7  
                     u1650 0B67                       u2371 047B                       u2291 042A  
                     u2195 03AB                       u2611 01A8                       u2515 0139  
                     u2451 00B5                       u1811 0B8D                       u3171 0E95  
                     u3091 0E3A                       u3307 0CDA                       u1715 0C5E  
                     u1731 0BF6                       u1651 0B66                       u1635 0B54  
                     u2380 0489                       u2196 03AC                       u2620 01BD  
                     u2540 0160                       u2460 00BB                       u2700 04AC  
                     u1900 0D4C                       u3180 0EAB                       u1660 0C33  
                     u1820 0B99                       u2381 0488                       u2621 01BC  
                     u2541 015F                       u2461 00BA                       u1805 0B81  
                     u2701 04AB                       u1901 0D4B                       u3317 0CE8  
                     u1661 0C32                       u1821 0B98                       u1645 0B5B  
                     u3237 0FF7                       u2390 048E                       u2630 01C4  
                     u2550 0179                       u2470 00D6                       u2710 04B2  
                     u1910 0D53                       u3190 0EBB                       u1750 0C09  
                     u1830 0BA4                       u2391 048D                       u2631 01C3  
                     u2551 0178                       u2535 0147                       u2471 00D5  
                     u2711 04B1                       u1911 0D52                       u3191 0EBA  
                     u3327 0B42                       u1751 0C08                       u3247 0B17  
                     u1831 0BA3                       u2640 01CA                       u2560 0181  
                     u2480 00F4                       u2720 04B7                       u1680 0C45  
                     u1760 0C13                       u1840 0BAF                       u2641 01C9  
                     u2561 0180                       u2545 015C                       u2481 00F3  
                     u2801 0590                       u2721 04B6                       u3185 0EA6  
                     u3257 0C94                       u1681 0C44                       u1761 0C12  
                     u1745 0BFB                       u1841 0BAE                       u2650 01DC  
                     u2490 012E                       u2802 0597                       u2730 04D6  
                     u1930 0D68                       u1850 0CFA                       u2651 01DB  
                     u2491 012D                       u2811 05AC                       u2803 059E  
                     u2731 04D5                       u1931 0D67                       u1851 0CF9  
                     u3267 0CA2                       u1675 0C37                       u2660 01EB  
                     u2580 0190                       u2812 05B3                       u2740 04DC  
                     u1940 0D6D                       u1860 0D15                       u1780 0C26  
                     u2581 018F                       u2901 06C9                       u2813 05BA  
                     u2741 04DB                       u1941 0D6C                       u1925 0D58  
                     u3277 0CB0                       u1781 0C25                       u1765 0C0F  
                     u1950 0254                       u2670 0208                       u1790 0B7A  
                     u2910 06E5                       u2902 06D0                       u2750 04E1  
                     u1870 0D2F                       u1951 0253                       u2671 0207  
                     u2575 0185                       u1791 0B79                       u2903 06D7  
                     u2831 05E0                       u2751 04E0                       u1871 0D2E  
                     u3287 0CBE                       u1695 0C46                       u1775 0C1A  
                     u1960 025A                       u2680 0225                       u2832 05E7  
                     u2760 04F8                       u1880 0D36                       u1961 0259  
                     u2681 0224                       u2665 01E6                       u2921 06F1  
                     u2841 060B                       u2833 05EE                       u2825 05BC  
                     u2761 04F7                       u1881 0D35                       u1865 0D10  
                     u3297 0CCC                       u1970 025F                       u2690 023A  
                     u2922 06F8                       u2842 0612                       u2770 04FD  
                     u1971 025E                       u2691 0239                       u2675 0204  
                     u2595 0193                       u2923 06FF                       u2915 06E0  
                     u2843 0619                       u2771 04FC                       u1980 027B  
                     u1981 027A                       u2685 0221                       u2861 063F  
                     u2781 054A                       u1990 0284                       u2950 0723  
                     u2862 0646                       u2782 0551                       u1991 0283  
                     u2951 0722                       u2935 0701                       u2871 066A  
                     u2863 064D                       u2855 061B                       u2791 0566  
                     u2783 0558                       u1895 0D38                       u2872 0671  
                     u2792 056D                       u2945 0718                       u2881 0695  
                     u2873 0678                       u2793 0574                       u2970 0737  
                     u2890 06BD                       u2882 069C                       u2971 0736  
                     u2883 06A3                       u2980 073C                       u2981 073B  
                     u2965 0726                       u2990 0750                       u2991 074F  
                     u2895 06B8                       _main 0EC9                       _init 0C6F  
                     btemp 007E                       start 0000            ___fldiv@new_exp 0060  
          _update_pwm_duty 0BC0              ___fltol@sign1 00BC            __end_of___fladd 049F  
                    ?_main 0070                      ?_init 0070            __end_of___fldiv 0247  
          __end_of___flmul 07E4            __end_of___fltol 0D7B                      _T2CON 0012  
          __end_of___lwdiv 0C6F            __end_of___lwmod 0C2B                      _PORTC 0007  
                    _PORTD 0008                      _TRISA 0085                      _TRISC 0087  
                    _TRISD 0088            ?_lcd_output_cal 0024            ?_lcd_output_raw 0024  
          __end_of_lcd_com 0B47                      main@i 00C0                      pclath 000A  
                    status 0003                      wtemp0 007E            __initialization 07E4  
             __end_of_main 1000               __end_of_init 0CED                     ??_main 00BE  
                   ??_init 0073                     _ADCON0 001F                     _ADCON1 009F  
                   _ADRESH 001E                     _ADRESL 009E                     _CCPR1L 0015  
  __end_of_update_pwm_duty 0BEF           __end_of___xxtofl 0EC9           __end_of_lcd_data 0B1C  
                ??___fladd 0042                     ___wmul 0B47                  ??___fldiv 0056  
                ??___flmul 0028                  ??___fltol 006C                  ??___lwdiv 007A  
                ??___lwmod 007D                  ??_lcd_com 0070               ___xxtofl@arg 007A  
             ___xxtofl@exp 0079               ___xxtofl@val 0070    __end_of__initialization 07FC  
               ___fltol@f1 0068             __pcstackCOMMON 0070               __pidataBANK1 0B1C  
  read_adc_channel@channel 0072                 __pbssBANK1 00B4           ?_update_pwm_duty 0020  
 update_pwm_duty@adc_value 0020          __end_of__Umul8_16 0B93                 __pmaintext 0EC9  
                  ?___wmul 0070                    _CCP1CON 0017           ??_lcd_output_cal 007E  
         ??_lcd_output_raw 007E                  ?___xxtofl 0070                  ?_lcd_data 0070  
update_pwm_duty@duty_cycle 0024                    ___fladd 0247                    ___fldiv 0078  
                  ___flmul 049F                    ___fltol 0CED                    _adc_low 00BA  
                  ___lwdiv 0C2B                    ___lwmod 0BEF                    __ptext1 0BC0  
                  __ptext2 0B47                    __ptext3 0B93                    __ptext4 0D7B  
                  __ptext5 000B                    __ptext6 0B08                    __ptext7 0BEF  
                  __ptext8 0C2B                    __ptext9 0C6F                    _lcd_com 0B30  
               ??___xxtofl 0074                    _msg_ch0 00AA                    _msg_ch2 00A0  
               ??_lcd_data 0070       end_of_initialization 07FC           _read_adc_channel 0B93  
               _result_ch0 00B6                 _result_ch2 00B4                ___fladd@grs 004D  
            ___xxtofl@sign 0078                ___fldiv@grs 0062                ___fldiv@rem 005B  
              ___flmul@grs 002E             __end_of___wmul 0B6C        start_initialization 07E4  
                 ??___wmul 0074                 init_fetch0 0AF5                  __Umul8_16 0B6C  
              __pdataBANK1 00A0                  ___fladd@a 003E                  ___fladd@b 003A  
                ___fldiv@a 004E                  ___fldiv@b 0052                  ___flmul@a 0024  
                ___flmul@b 0020                  ___latbits 0002              __pcstackBANK0 0020  
            __pcstackBANK1 00BC           ___lwdiv@dividend 0078                   ?___fladd 003A  
                 ?___fldiv 004E                   ?___flmul 0020                   ?___fltol 0068  
               ?__Umul8_16 0070                   ?___lwdiv 0076                   ?___lwmod 0020  
                 ?_lcd_com 0070           ___lwdiv@quotient 007A   __end_of_read_adc_channel 0BC0  
           ___wmul@product 0074                  lcd_data@i 0072          ___wmul@multiplier 0070  
              ??__Umul8_16 0072                   _adc_high 00B8          ??_update_pwm_duty 0022  
                 ___xxtofl 0E11            ___lwdiv@divisor 0076            ___lwdiv@counter 007C  
                 __ptext10 0B30                   __ptext11 0E11                   __ptext12 0CED  
                 __ptext13 049F                   __ptext14 0B6C                   __ptext15 0078  
                 __ptext16 0247                   _lcd_data 0B08                   lcd_com@i 0072  
                 init_ram0 0AF9           ___lwmod@dividend 0022     __Umul8_16@multiplicand 0070  
          lcd_output_cal@i 0024            lcd_output_cal@k 0026            ___lwmod@divisor 0020  
          lcd_output_raw@i 0024            lcd_output_raw@k 0026            ___lwmod@counter 007D  
           _lcd_output_cal 000B             _lcd_output_raw 0D7B              ___fladd@signs 004A  
        ?_read_adc_channel 0070         ??_read_adc_channel 0070               ___fladd@aexp 004B  
             ___fladd@bexp 004C       __Umul8_16@multiplier 0078          __Umul8_16@product 0074  
